 flightControlSystem_sfun

 Timestamp is 67d0cefc (Tue Mar 11 20:02:04 2025)

 Preferred load address is 0000000180000000

 Start         Length     Name                   Class
 0001:00000000 00015460H .text$mn                CODE
 0001:00015460 00000036H .text$mn$00             CODE
 0001:00015496 00000092H .text$x                 CODE
 0002:00000000 00000498H .idata$5                DATA
 0002:00000498 00000038H .00cfg                  DATA
 0002:000004d0 00000008H .CRT$XCA                DATA
 0002:000004d8 00000008H .CRT$XCZ                DATA
 0002:000004e0 00000008H .CRT$XIA                DATA
 0002:000004e8 00000008H .CRT$XIZ                DATA
 0002:000004f0 00000008H .CRT$XPA                DATA
 0002:000004f8 00000008H .CRT$XPZ                DATA
 0002:00000500 00000008H .CRT$XTA                DATA
 0002:00000508 00000008H .CRT$XTZ                DATA
 0002:00000510 00000000H .gehcont$y              DATA
 0002:00000510 00000000H .gfids$y                DATA
 0002:00000510 000002f0H .rdata                  DATA
 0002:00000800 00000080H .rdata$CastGuardVftablesA DATA
 0002:00000880 00000080H .rdata$CastGuardVftablesC DATA
 0002:00000900 0000019cH .rdata$voltmd           DATA
 0002:00000a9c 0000027cH .rdata$zzzdbg           DATA
 0002:00000d18 00000008H .rtc$IAA                DATA
 0002:00000d20 00000008H .rtc$IZZ                DATA
 0002:00000d28 00000008H .rtc$TAA                DATA
 0002:00000d30 00000008H .rtc$TZZ                DATA
 0002:00000d38 00000b08H .xdata                  DATA
 0002:00001840 00000084H .edata                  DATA
 0002:000018c4 00000140H .idata$2                DATA
 0002:00001a04 00000014H .idata$3                DATA
 0002:00001a18 00000498H .idata$4                DATA
 0002:00001eb0 00000c84H .idata$6                DATA
 0003:00000000 000084b0H .data                   DATA
 0003:000084b0 000011e0H .bss                    DATA
 0004:00000000 00000d68H .pdata                  DATA

  Address         Publics by Value              Rva+Base               Lib:Object

 0000:00000000       __AbsoluteZero             0000000000000000     <absolute>
 0000:00000000       ___safe_se_handler_count   0000000000000000     <absolute>
 0000:00000000       ___safe_se_handler_table   0000000000000000     <absolute>
 0000:00000000       __arm64x_extra_rfe_table   0000000000000000     <absolute>
 0000:00000000       __arm64x_extra_rfe_table_size 0000000000000000     <absolute>
 0000:00000000       __arm64x_native_entrypoint 0000000000000000     <absolute>
 0000:00000000       __arm64x_redirection_metadata 0000000000000000     <absolute>
 0000:00000000       __arm64x_redirection_metadata_count 0000000000000000     <absolute>
 0000:00000000       __dynamic_value_reloc_table 0000000000000000     <absolute>
 0000:00000000       __enclave_config           0000000000000000     <absolute>
 0000:00000000       __guard_check_icall_a64n_fptr 0000000000000000     <absolute>
 0000:00000000       __guard_eh_cont_count      0000000000000000     <absolute>
 0000:00000000       __guard_eh_cont_table      0000000000000000     <absolute>
 0000:00000000       __guard_fids_count         0000000000000000     <absolute>
 0000:00000000       __guard_fids_table         0000000000000000     <absolute>
 0000:00000000       __guard_iat_count          0000000000000000     <absolute>
 0000:00000000       __guard_iat_table          0000000000000000     <absolute>
 0000:00000000       __guard_longjmp_count      0000000000000000     <absolute>
 0000:00000000       __guard_longjmp_table      0000000000000000     <absolute>
 0000:00000000       __hybrid_auxiliary_iat     0000000000000000     <absolute>
 0000:00000000       __hybrid_auxiliary_iat_copy 0000000000000000     <absolute>
 0000:00000000       __hybrid_code_map          0000000000000000     <absolute>
 0000:00000000       __hybrid_code_map_count    0000000000000000     <absolute>
 0000:00000000       __x64_code_ranges_to_entry_points 0000000000000000     <absolute>
 0000:00000000       __x64_code_ranges_to_entry_points_count 0000000000000000     <absolute>
 0000:00000100       __guard_flags              0000000000000100     <absolute>
 0000:00000000       __ImageBase                0000000180000000     <linker-defined>
 0001:00000000       flightControlSystem_initializer 0000000180001000 f   flightControlSystem_sfun.obj
 0001:00000010       flightControlSystem_terminator 0000000180001010 f   flightControlSystem_sfun.obj
 0001:00000020       load_flightControlSystem_optimization_info 0000000180001020 f   flightControlSystem_sfun.obj
 0001:000000d0       unload_flightControlSystem_optimization_info 00000001800010d0 f   flightControlSystem_sfun.obj
 0001:00000100       sf_flightControlSystem_method_dispatcher 0000000180001100 f   flightControlSystem_sfun.obj
 0001:00000170       sf_flightControlSystem_process_check_sum_call 0000000180001170 f   flightControlSystem_sfun.obj
 0001:00000680       sf_flightControlSystem_get_eml_resolved_functions_info 0000000180001680 f   flightControlSystem_sfun.obj
 0001:000008c0       sf_flightControlSystem_third_party_uses_info 00000001800018c0 f   flightControlSystem_sfun.obj
 0001:00000ac0       sf_flightControlSystem_jit_fallback_info 0000000180001ac0 f   flightControlSystem_sfun.obj
 0001:00000cc0       sf_flightControlSystem_get_post_codegen_info 0000000180001cc0 f   flightControlSystem_sfun.obj
 0001:00000ee0       sf_flightControlSystem_updateBuildInfo_args_info 0000000180001ee0 f   flightControlSystem_sfun.obj
 0001:000010e0       sf_c4_flightControlSystem_get_eml_resolved_functions_info 00000001800020e0 f   c4_flightControlSystem.obj
 0001:00001160       sf_c4_flightControlSystem_get_check_sum 0000000180002160 f   c4_flightControlSystem.obj
 0001:00001230       c4_flightControlSystem_method_dispatcher 0000000180002230 f   c4_flightControlSystem.obj
 0001:000040c0       sf_c4_flightControlSystem_third_party_uses_info 00000001800050c0 f   c4_flightControlSystem.obj
 0001:00004130       sf_c4_flightControlSystem_jit_fallback_info 0000000180005130 f   c4_flightControlSystem.obj
 0001:000042c0       sf_c4_flightControlSystem_updateBuildInfo_args_info 00000001800052c0 f   c4_flightControlSystem.obj
 0001:000045e0       sf_c4_flightControlSystem_get_post_codegen_info 00000001800055e0 f   c4_flightControlSystem.obj
 0001:00004ac0       sf_c11_flightControlSystem_get_eml_resolved_functions_info 0000000180005ac0 f   c11_flightControlSystem.obj
 0001:00004b40       sf_c11_flightControlSystem_get_check_sum 0000000180005b40 f   c11_flightControlSystem.obj
 0001:00004c10       c11_flightControlSystem_method_dispatcher 0000000180005c10 f   c11_flightControlSystem.obj
 0001:000084d0       sf_c11_flightControlSystem_third_party_uses_info 00000001800094d0 f   c11_flightControlSystem.obj
 0001:00008520       sf_c11_flightControlSystem_jit_fallback_info 0000000180009520 f   c11_flightControlSystem.obj
 0001:000086b0       sf_c11_flightControlSystem_updateBuildInfo_args_info 00000001800096b0 f   c11_flightControlSystem.obj
 0001:000089d0       sf_c11_flightControlSystem_get_post_codegen_info 00000001800099d0 f   c11_flightControlSystem.obj
 0001:00008ec0       mexFunction                0000000180009ec0 f   flightControlSystem_sfun_registry.obj
 0001:0000b790       _ssSetInputPortDirectFeedThroughFcn 000000018000c790 f   flightControlSystem_sfun_registry.obj
 0001:0000b900       _ssSetRWorkValueFcn        000000018000c900 f   flightControlSystem_sfun_registry.obj
 0001:0000b980       _ssGetRWorkValueFcn        000000018000c980 f   flightControlSystem_sfun_registry.obj
 0001:0000b9f0       _ssSetIWorkValueFcn        000000018000c9f0 f   flightControlSystem_sfun_registry.obj
 0001:0000ba70       _ssGetIWorkValueFcn        000000018000ca70 f   flightControlSystem_sfun_registry.obj
 0001:0000bae0       _ssSetPWorkValueFcn        000000018000cae0 f   flightControlSystem_sfun_registry.obj
 0001:0000bb60       _ssGetPWorkValueFcn        000000018000cb60 f   flightControlSystem_sfun_registry.obj
 0001:0000bbd0       _ssGetInputPortSignalFcn   000000018000cbd0 f   flightControlSystem_sfun_registry.obj
 0001:0000bf60       _ssGetInputPortBufferDstPortFcn 000000018000cf60 f   flightControlSystem_sfun_registry.obj
 0001:0000bfe0       _ssGetInputPortSignalPtrsFcn 000000018000cfe0 f   flightControlSystem_sfun_registry.obj
 0001:0000c370       ssGetParameterTuningCompliance 000000018000d370 f   flightControlSystem_sfun_registry.obj
 0001:0000c3e0       _ssReadInputStringFcn      000000018000d3e0 f   flightControlSystem_sfun_registry.obj
 0001:0000c450       ssGetDTypeIdFromMxArray    000000018000d450 f   flightControlSystem_sfun_registry.obj
 0001:0000c570       ssWriteRTWMx2dMatParam     000000018000d570 f   flightControlSystem_sfun_registry.obj
 0001:0000c600       ssWriteRTWMxVectParam      000000018000d600 f   flightControlSystem_sfun_registry.obj
 0001:0000c680       ssWriteRTWParameters       000000018000d680 f   flightControlSystem_sfun_registry.obj
 0001:0000cc40       ssWriteRTWParamSettings    000000018000dc40 f   flightControlSystem_sfun_registry.obj
 0001:0000d330       ssWriteRTWStr              000000018000e330 f   flightControlSystem_sfun_registry.obj
 0001:0000d390       ssWriteRTWWorkVect         000000018000e390 f   flightControlSystem_sfun_registry.obj
 0001:0000d8f0       ssWarning                  000000018000e8f0 f   flightControlSystem_sfun_registry.obj
 0001:0000d9e0       ssGetRootSS                000000018000e9e0 f   flightControlSystem_sfun_registry.obj
 0001:0000daa0       ssGetParentSS              000000018000eaa0 f   flightControlSystem_sfun_registry.obj
 0001:0000db60       ssWriteRTWNameValuePair    000000018000eb60 f   flightControlSystem_sfun_registry.obj
 0001:0000e060       _ssSetInputPortMatrixDimensions 000000018000f060 f   flightControlSystem_sfun_registry.obj
 0001:0000e1b0       _ssSetOutputPortMatrixDimensions 000000018000f1b0 f   flightControlSystem_sfun_registry.obj
 0001:0000e300       _ssSetInputPortVectorDimension 000000018000f300 f   flightControlSystem_sfun_registry.obj
 0001:0000e3b0       _ssSetOutputPortVectorDimension 000000018000f3b0 f   flightControlSystem_sfun_registry.obj
 0001:0000e460       ssIsRunTimeParamTunable    000000018000f460 f   flightControlSystem_sfun_registry.obj
 0001:0000e4d0       ssGetSFuncBlockHandle      000000018000f4d0 f   flightControlSystem_sfun_registry.obj
 0001:0000e540       _ssGetCallSystemNumFcnCallDestinations 000000018000f540 f   flightControlSystem_sfun_registry.obj
 0001:0000e5b0       _ssGetCurrentInputPortWidth 000000018000f5b0 f   flightControlSystem_sfun_registry.obj
 0001:0000e6f0       _ssGetCurrentOutputPortWidth 000000018000f6f0 f   flightControlSystem_sfun_registry.obj
 0001:0000e830       ssGetIsZeroCrossControlDisabled 000000018000f830 f   flightControlSystem_sfun_registry.obj
 0001:0000e8a0       ssSetIsInputPortUsedForContZcSignal 000000018000f8a0 f   flightControlSystem_sfun_registry.obj
 0001:0000e910       ssSetZcSignalIsZcElementDisc 000000018000f910 f   flightControlSystem_sfun_registry.obj
 0001:0000e9c0       ssSetZcSignalName          000000018000f9c0 f   flightControlSystem_sfun_registry.obj
 0001:0000ea30       ssSetZcSignalWidth         000000018000fa30 f   flightControlSystem_sfun_registry.obj
 0001:0000eaa0       ssSetZcSignalZcEventType   000000018000faa0 f   flightControlSystem_sfun_registry.obj
 0001:0000eb10       ssSetZcSignalType          000000018000fb10 f   flightControlSystem_sfun_registry.obj
 0001:0000eb80       ssSetZcSignalZcTol         000000018000fb80 f   flightControlSystem_sfun_registry.obj
 0001:0000ebf0       ssSetZcSignalNeedsEventNotification 000000018000fbf0 f   flightControlSystem_sfun_registry.obj
 0001:0000ec60       ssCreateAndAddZcSignalInfo 000000018000fc60 f   flightControlSystem_sfun_registry.obj
 0001:0000ecd0       ssCloneAndAddZcSignalInfo  000000018000fcd0 f   flightControlSystem_sfun_registry.obj
 0001:0000ed40       ssGetNumZcSignals          000000018000fd40 f   flightControlSystem_sfun_registry.obj
 0001:0000edb0       ssGetZcSignalVector        000000018000fdb0 f   flightControlSystem_sfun_registry.obj
 0001:0000ee20       ssGetZcSignalName          000000018000fe20 f   flightControlSystem_sfun_registry.obj
 0001:0000ee90       ssGetZcSignalWidth         000000018000fe90 f   flightControlSystem_sfun_registry.obj
 0001:0000ef00       ssGetZcSignalZcEventType   000000018000ff00 f   flightControlSystem_sfun_registry.obj
 0001:0000ef70       ssGetZcSignalZcEvents      000000018000ff70 f   flightControlSystem_sfun_registry.obj
 0001:0000efe0       ssGetZcSignalType          000000018000ffe0 f   flightControlSystem_sfun_registry.obj
 0001:0000f050       ssGetZcSignalZcTol         0000000180010050 f   flightControlSystem_sfun_registry.obj
 0001:0000f0d0       ssGetZcSignalNeedsEventNotification 00000001800100d0 f   flightControlSystem_sfun_registry.obj
 0001:0000f140       ssGetZcSignalIsZcElementDisc 0000000180010140 f   flightControlSystem_sfun_registry.obj
 0001:0000f1e0       ssGetIsInputPortElementContinuous 00000001800101e0 f   flightControlSystem_sfun_registry.obj
 0001:0000f280       _ssGetAbsTol               0000000180010280 f   flightControlSystem_sfun_registry.obj
 0001:0000f2f0       _ssSetStateAbsTol          00000001800102f0 f   flightControlSystem_sfun_registry.obj
 0001:0000f3d0       _ssSetInputPortReusableFcn 00000001800103d0 f   flightControlSystem_sfun_registry.obj
 0001:0000f4d0       _ssSetOutputPortReusableFcn 00000001800104d0 f   flightControlSystem_sfun_registry.obj
 0001:0000f5d0       _ssSetSymbolicDimsSupport  00000001800105d0 f   flightControlSystem_sfun_registry.obj
 0001:0000f640       _ssRegisterSymbolicDimsExpr 0000000180010640 f   flightControlSystem_sfun_registry.obj
 0001:0000f6c0       _ssRegisterSymbolicDimsMATLABExpr 00000001800106c0 f   flightControlSystem_sfun_registry.obj
 0001:0000f750       _ssRegisterSymbolicDims    0000000180010750 f   flightControlSystem_sfun_registry.obj
 0001:0000f7f0       _ssRegisterSymbolicDimsString 00000001800107f0 f   flightControlSystem_sfun_registry.obj
 0001:0000f870       _ssRegisterSymbolicDimsIntValue 0000000180010870 f   flightControlSystem_sfun_registry.obj
 0001:0000f8e0       _ssRegisterSymbolicEqualRelation 00000001800108e0 f   flightControlSystem_sfun_registry.obj
 0001:0000f950       _ssRegisterSymbolicEqualValue 0000000180010950 f   flightControlSystem_sfun_registry.obj
 0001:0000f9c0       _ssAmendLeadingSymbolicDims 00000001800109c0 f   flightControlSystem_sfun_registry.obj
 0001:0000fa40       _ssAmendTrailingSymbolicDims 0000000180010a40 f   flightControlSystem_sfun_registry.obj
 0001:0000fac0       _ssRegisterSymbolicDimsPlus 0000000180010ac0 f   flightControlSystem_sfun_registry.obj
 0001:0000fb40       _ssRegisterSymbolicDimsMinus 0000000180010b40 f   flightControlSystem_sfun_registry.obj
 0001:0000fbc0       _ssRegisterSymbolicDimsMultiply 0000000180010bc0 f   flightControlSystem_sfun_registry.obj
 0001:0000fc40       _ssRegisterSymbolicDimsDivide 0000000180010c40 f   flightControlSystem_sfun_registry.obj
 0001:0000fcc0       _ssGetNumSymbolicDims      0000000180010cc0 f   flightControlSystem_sfun_registry.obj
 0001:0000fd30       _ssGetSymbolicDim          0000000180010d30 f   flightControlSystem_sfun_registry.obj
 0001:0000fdb0       _ssSetInputPortSymbolicDimsId 0000000180010db0 f   flightControlSystem_sfun_registry.obj
 0001:0000fe20       _ssGetCompInputPortSymbolicDimsId 0000000180010e20 f   flightControlSystem_sfun_registry.obj
 0001:0000fe90       _ssSetCompInputPortSymbolicDimsId 0000000180010e90 f   flightControlSystem_sfun_registry.obj
 0001:0000ff00       _ssSetOutputPortSymbolicDimsId 0000000180010f00 f   flightControlSystem_sfun_registry.obj
 0001:0000ff70       _ssGetCompOutputPortSymbolicDimsId 0000000180010f70 f   flightControlSystem_sfun_registry.obj
 0001:0000ffe0       _ssSetCompOutputPortSymbolicDimsId 0000000180010fe0 f   flightControlSystem_sfun_registry.obj
 0001:00010050       _ssGetDWorkSymbolicDimsId  0000000180011050 f   flightControlSystem_sfun_registry.obj
 0001:000100c0       _ssSetDWorkSymbolicDimsId  00000001800110c0 f   flightControlSystem_sfun_registry.obj
 0001:00010130       _ssGetCompDWorkSymbolicDimsId 0000000180011130 f   flightControlSystem_sfun_registry.obj
 0001:000101a0       _ssSetCompDWorkSymbolicDimsId 00000001800111a0 f   flightControlSystem_sfun_registry.obj
 0001:00010210       _ssCreateSLCGStringBuffer  0000000180011210 f   flightControlSystem_sfun_registry.obj
 0001:00010280       _ssAddToSLCGStringBuffer   0000000180011280 f   flightControlSystem_sfun_registry.obj
 0001:000102f0       _ssGetPointerContainedData 00000001800112f0 f   flightControlSystem_sfun_registry.obj
 0001:00010380       _ssGetPointerContainedDataWidth 0000000180011380 f   flightControlSystem_sfun_registry.obj
 0001:00010410       _ssRegisterDynamicArrayDataTypeFcn 0000000180011410 f   flightControlSystem_sfun_registry.obj
 0001:000104b0       _ssGetDynamicArrayContainedDataCurrentWidthFcn 00000001800114b0 f   flightControlSystem_sfun_registry.obj
 0001:00010580       _ssGetDynamicArrayContainedDataFcn 0000000180011580 f   flightControlSystem_sfun_registry.obj
 0001:00010650       _ssGetInputPortDynamicArrayDataFcn 0000000180011650 f   flightControlSystem_sfun_registry.obj
 0001:00010710       _ssGetOutputPortDynamicArrayDataFcn 0000000180011710 f   flightControlSystem_sfun_registry.obj
 0001:000107d0       _ssGetInputPortDynamicArrayContainedDataFcn 00000001800117d0 f   flightControlSystem_sfun_registry.obj
 0001:00010890       _ssGetOutputPortDynamicArrayContainedDataFcn 0000000180011890 f   flightControlSystem_sfun_registry.obj
 0001:00010950       _ssGetDynamicArrayDWorkContainedDataFcn 0000000180011950 f   flightControlSystem_sfun_registry.obj
 0001:00010a10       sf_process_check_sum_call  0000000180011a10 f   flightControlSystem_sfun_registry.obj
 0001:00010a60       sf_process_get_third_party_uses_info_call 0000000180011a60 f   flightControlSystem_sfun_registry.obj
 0001:00010c90       sf_process_get_jit_fallback_info_call 0000000180011c90 f   flightControlSystem_sfun_registry.obj
 0001:00010ec0       sf_process_get_post_codegen_info_call 0000000180011ec0 f   flightControlSystem_sfun_registry.obj
 0001:000110f0       sf_process_get_updateBuildInfo_args_info_call 00000001800120f0 f   flightControlSystem_sfun_registry.obj
 0001:00011320       sf_process_get_eml_resolved_functions_info_call 0000000180012320 f   flightControlSystem_sfun_registry.obj
 0001:00011550       sf_mex_unlock_call         0000000180012550 f   flightControlSystem_sfun_registry.obj
 0001:00011770       sf_machine_global_initializer_called 0000000180012770 f   flightControlSystem_sfun_registry.obj
 0001:000117a0       sf_machine_global_method_dispatcher 00000001800127a0 f   flightControlSystem_sfun_registry.obj
 0001:00011800       sf_machine_global_terminator 0000000180012800 f   flightControlSystem_sfun_registry.obj
 0001:00011830       callCustomFcn              0000000180012830 f   flightControlSystem_sfun_registry.obj
 0001:00011840       sf_machine_global_initializer 0000000180012840 f   flightControlSystem_sfun_registry.obj
 0001:00011870       mdlGetSimState             0000000180012870 f   flightControlSystem_sfun_registry.obj
 0001:000118b0       mdlSetSimState             00000001800128b0 f   flightControlSystem_sfun_registry.obj
 0001:00012240       ProcessMexSfunctionEveryCall 0000000180013240 f   flightControlSystem_sfun_registry.obj
 0001:000133c0       __local_stdio_printf_options 00000001800143c0 f i flightControlSystem_sfun_registry.obj
 0001:000133d0       _vsnprintf_l               00000001800143d0 f i flightControlSystem_sfun_registry.obj
 0001:00013450       _vsprintf_l                0000000180014450 f i flightControlSystem_sfun_registry.obj
 0001:000134a0       sprintf                    00000001800144a0 f i flightControlSystem_sfun_registry.obj
 0001:000134f0       mexfilerequiredapiversion  00000001800144f0 f   c_mexapi_version.obj
 0001:00013520       getBitfieldFromFloat       0000000180014520 f   half_type.obj
 0001:00013550       getFloatFromBitfield       0000000180014550 f   half_type.obj
 0001:00013580       getBitfieldFromHalf        0000000180014580 f   half_type.obj
 0001:000135a0       getHalfFromBitfield        00000001800145a0 f   half_type.obj
 0001:000135d0       halfToFloat                00000001800145d0 f   half_type.obj
 0001:00013750       halfToDouble               0000000180014750 f   half_type.obj
 0001:00013780       floatToHalf                0000000180014780 f   half_type.obj
 0001:000139e0       doubleToHalf               00000001800149e0 f   half_type.obj
 0001:00013ccb       grayto8_real64             0000000180014ccb f   libmwgrayto8:libmwgrayto8.dll
 0001:00013cd1       rgb2gray_tbb_uint8         0000000180014cd1 f   libmwrgb2gray_tbb:libmwrgb2gray_tbb.dll
 0001:00013cd7       getnumcores                0000000180014cd7 f   libmwgetnumcores:libmwgetnumcores.dll
 0001:00013cdd       sf_load_rtw_optimization_info 0000000180014cdd f   sf_runtime:sf_runtime.dll
 0001:00013ce3       sf_mex_decode              0000000180014ce3 f   sf_runtime:sf_runtime.dll
 0001:00013ce9       sf_init_ChartRunTimeInfo   0000000180014ce9 f   sf_runtime:sf_runtime.dll
 0001:00013cef       sf_free_ChartRunTimeInfo   0000000180014cef f   sf_runtime:sf_runtime.dll
 0001:00013cf5       sf_reset_warnings_ChartRunTimeInfo 0000000180014cf5 f   sf_runtime:sf_runtime.dll
 0001:00013cfb       sfrtGetEmlrtCtx            0000000180014cfb f   sf_runtime:sf_runtime.dll
 0001:00013d01       sfrtGetCovrtInstance       0000000180014d01 f   sf_runtime:sf_runtime.dll
 0001:00013d07       sf_get_chart_instance_ptr  0000000180014d07 f   sf_runtime:sf_runtime.dll
 0001:00013d0d       sfSetAnimationVectors      0000000180014d0d f   sf_runtime:sf_runtime.dll
 0001:00013d13       sim_mode_is_rtw_gen        0000000180014d13 f   sf_runtime:sf_runtime.dll
 0001:00013d19       sim_mode_is_external       0000000180014d19 f   sf_runtime:sf_runtime.dll
 0001:00013d1f       sf_clear_rtw_identifier    0000000180014d1f f   sf_runtime:sf_runtime.dll
 0001:00013d25       sf_get_time                0000000180014d25 f   sf_runtime:sf_runtime.dll
 0001:00013d2b       sf_set_work_widths         0000000180014d2b f   sf_runtime:sf_runtime.dll
 0001:00013d31       mdlProcessParamsCommon     0000000180014d31 f   sf_runtime:sf_runtime.dll
 0001:00013d37       sf_mex_call                0000000180014d37 f   sf_runtime:sf_runtime.dll
 0001:00013d3d       sf_mex_error_message       0000000180014d3d f   sf_runtime:sf_runtime.dll
 0001:00013d43       sf_mex_create              0000000180014d43 f   sf_runtime:sf_runtime.dll
 0001:00013d49       sf_mex_createcellmatrix    0000000180014d49 f   sf_runtime:sf_runtime.dll
 0001:00013d4f       sf_mex_setcell             0000000180014d4f f   sf_runtime:sf_runtime.dll
 0001:00013d55       sf_mex_getcell             0000000180014d55 f   sf_runtime:sf_runtime.dll
 0001:00013d5b       sf_mex_assign              0000000180014d5b f   sf_runtime:sf_runtime.dll
 0001:00013d61       sf_mex_dup                 0000000180014d61 f   sf_runtime:sf_runtime.dll
 0001:00013d67       sf_mex_destroy             0000000180014d67 f   sf_runtime:sf_runtime.dll
 0001:00013d6d       sf_mex_import              0000000180014d6d f   sf_runtime:sf_runtime.dll
 0001:00013d73       ssGetInputPortSignal_wrapper 0000000180014d73 f   sf_runtime:sf_runtime.dll
 0001:00013d79       ssGetOutputPortSignal_wrapper 0000000180014d79 f   sf_runtime:sf_runtime.dll
 0001:00013d7f       sf_mex_listen_for_ctrl_c   0000000180014d7f f   sf_runtime:sf_runtime.dll
 0001:00013d85       sf_data_overflow_error     0000000180014d85 f   sf_runtime:sf_runtime.dll
 0001:00013d8b       sf_data_saturate_error     0000000180014d8b f   sf_runtime:sf_runtime.dll
 0001:00013d91       sf_get_ChartInfoStruct_CodeGen 0000000180014d91 f   sf_runtime:sf_runtime.dll
 0001:00013d97       sf_get_hasSeparateUpdateOutputs 0000000180014d97 f   sf_runtime:sf_runtime.dll
 0001:00013d9d       callMdlMethodAndReportError 0000000180014d9d f   sf_runtime:sf_runtime.dll
 0001:00013da3       call_sf_machine_global_method_dispatcher 0000000180014da3 f   sf_runtime:sf_runtime.dll
 0001:00013da9       getRuntimeInstanceInfoAsVoid 0000000180014da9 f   sf_runtime:sf_runtime.dll
 0001:00013daf       sf_mex_error_direct_call   0000000180014daf f   sf_runtime:sf_runtime.dll
 0001:00013db5       sf_clear_error_manager_info 0000000180014db5 f   sf_runtime:sf_runtime.dll
 0001:00013dbb       mxIsChar_800               0000000180014dbb f   libmx:libmx.dll
 0001:00013dc1       mxGetScalar_800            0000000180014dc1 f   libmx:libmx.dll
 0001:00013dc7       mxGetPr_800                0000000180014dc7 f   libmx:libmx.dll
 0001:00013dcd       mxDestroyArray_800         0000000180014dcd f   libmx:libmx.dll
 0001:00013dd3       mxCreateDoubleMatrix_800   0000000180014dd3 f   libmx:libmx.dll
 0001:00013dd9       mxGetString_800            0000000180014dd9 f   libmx:libmx.dll
 0001:00013ddf       mxDuplicateArray_800       0000000180014ddf f   libmx:libmx.dll
 0001:00013de5       mxSetCell_800              0000000180014de5 f   libmx:libmx.dll
 0001:00013deb       mxSetField_800             0000000180014deb f   libmx:libmx.dll
 0001:00013df1       mxCreateString_800         0000000180014df1 f   libmx:libmx.dll
 0001:00013df7       mxCreateCellMatrix_800     0000000180014df7 f   libmx:libmx.dll
 0001:00013dfd       mxCreateStructMatrix_800   0000000180014dfd f   libmx:libmx.dll
 0001:00013e03       mxGetInf_800               0000000180014e03 f   libmx:libmx.dll
 0001:00013e09       mxCalloc_800               0000000180014e09 f   libmx:libmx.dll
 0001:00013e0f       mxGetM_800                 0000000180014e0f f   libmx:libmx.dll
 0001:00013e15       mxGetClassID_800           0000000180014e15 f   libmx:libmx.dll
 0001:00013e1b       mxIsNumeric_800            0000000180014e1b f   libmx:libmx.dll
 0001:00013e21       mxIsComplex_800            0000000180014e21 f   libmx:libmx.dll
 0001:00013e27       mxGetN_800                 0000000180014e27 f   libmx:libmx.dll
 0001:00013e2d       mxCreateDoubleScalar_800   0000000180014e2d f   libmx:libmx.dll
 0001:00013e33       mexMakeArrayPersistent_800 0000000180014e33 f   libmex:libmex.dll
 0001:00013e39       mexErrMsgTxt_800           0000000180014e39 f   libmex:libmex.dll
 0001:00013e3f       mexWarnMsgTxt_800          0000000180014e3f f   libmex:libmex.dll
 0001:00013e45       mexCallMATLAB_800          0000000180014e45 f   libmex:libmex.dll
 0001:00013e4b       mexLock_800                0000000180014e4b f   libmex:libmex.dll
 0001:00013e51       mexUnlock_800              0000000180014e51 f   libmex:libmex.dll
 0001:00013e57       mexIsLocked_800            0000000180014e57 f   libmex:libmex.dll
 0001:00013e5d       utMalloc                   0000000180014e5d f   libut:libut.dll
 0001:00013e63       utFree                     0000000180014e63 f   libut:libut.dll
 0001:00013e69       muDoubleScalarFloor        0000000180014e69 f   libmwmathutil:libmwmathutil.dll
 0001:00013e6f       muDoubleScalarIsNaN        0000000180014e6f f   libmwmathutil:libmwmathutil.dll
 0001:00013e75       muDoubleScalarIsInf        0000000180014e75 f   libmwmathutil:libmwmathutil.dll
 0001:00013e7b       muDoubleScalarRound        0000000180014e7b f   libmwmathutil:libmwmathutil.dll
 0001:00013e81       emlrtLicenseCheckR2022a    0000000180014e81 f   libemlrt:libemlrt.dll
 0001:00013e87       emlrtDynamicBoundsCheckR2012b 0000000180014e87 f   libemlrt:libemlrt.dll
 0001:00013e8d       emlrtIntegerCheckR2012b    0000000180014e8d f   libemlrt:libemlrt.dll
 0001:00013e93       emlrtForLoopVectorCheckR2021a 0000000180014e93 f   libemlrt:libemlrt.dll
 0001:00013e99       covrtCreateStateflowInstanceData 0000000180014e99 f   libcovrt:libcovrt.dll
 0001:00013e9f       covrtDeleteStateflowInstanceData 0000000180014e9f f   libcovrt:libcovrt.dll
 0001:00013ea5       covrtTransInitFcn          0000000180014ea5 f   libcovrt:libcovrt.dll
 0001:00013eab       covrtStateInitFcn          0000000180014eab f   libcovrt:libcovrt.dll
 0001:00013eb1       covrtChartInitFcn          0000000180014eb1 f   libcovrt:libcovrt.dll
 0001:00013eb7       covrtSigUpdateFcn          0000000180014eb7 f   libcovrt:libcovrt.dll
 0001:00013ebd       covrtEmlInitFcn            0000000180014ebd f   libcovrt:libcovrt.dll
 0001:00013ec3       covrtEmlFcnInitFcn         0000000180014ec3 f   libcovrt:libcovrt.dll
 0001:00013ec9       covrtEmlFcnEval            0000000180014ec9 f   libcovrt:libcovrt.dll
 0001:00013ecf       covrtSaturationUpdateFcn   0000000180014ecf f   libcovrt:libcovrt.dll
 0001:00013ed5       covrtEmlSaturationInitFcn  0000000180014ed5 f   libcovrt:libcovrt.dll
 0001:00013edb       covrtEmlForInitFcn         0000000180014edb f   libcovrt:libcovrt.dll
 0001:00013ee1       covrtEmlForEval            0000000180014ee1 f   libcovrt:libcovrt.dll
 0001:00013ee8       __raise_securityfailure    0000000180014ee8 f   MSVCRT:gs_report.obj
 0001:00013f1c       __report_gsfailure         0000000180014f1c f   MSVCRT:gs_report.obj
 0001:00013ff0       __report_rangecheckfailure 0000000180014ff0 f   MSVCRT:gs_report.obj
 0001:00014004       __report_securityfailure   0000000180015004 f   MSVCRT:gs_report.obj
 0001:000140a0       __report_securityfailureEx 00000001800150a0 f   MSVCRT:gs_report.obj
 0001:00014294       __GSHandlerCheck           0000000180015294 f   MSVCRT:gshandler.obj
 0001:000142b4       __GSHandlerCheckCommon     00000001800152b4 f   MSVCRT:gshandler.obj
 0001:00014320       __security_check_cookie    0000000180015320 f   MSVCRT:amdsecgs.obj
 0001:00014350       __chkstk                   0000000180015350 f   MSVCRT:chkstk.obj
 0001:00014350       _alloca_probe              0000000180015350 f   MSVCRT:chkstk.obj
 0001:000146dc       _CRT_INIT                  00000001800156dc f   MSVCRT:dll_dllmain.obj
 0001:000146e4       _DllMainCRTStartup         00000001800156e4 f   MSVCRT:dll_dllmain.obj
 0001:00014790       __security_init_cookie     0000000180015790 f   MSVCRT:gs_support.obj
 0001:0001483c       DllMain                    000000018001583c f   MSVCRT:dll_dllmain_stub.obj
 0001:00014860       ?__scrt_initialize_type_info@@YAXXZ 0000000180015860 f   MSVCRT:tncleanup.obj
 0001:00014870       ?__scrt_uninitialize_type_info@@YAXXZ 0000000180015870 f   MSVCRT:tncleanup.obj
 0001:0001487c       __local_stdio_scanf_options 000000018001587c f i MSVCRT:default_local_stdio_options.obj
 0001:00014884       __scrt_initialize_default_local_stdio_options 0000000180015884 f   MSVCRT:default_local_stdio_options.obj
 0001:000148a0       ?configure_argv@__scrt_narrow_argv_policy@@SAHXZ 00000001800158a0 f i MSVCRT:utility.obj
 0001:00014900       ?initialize_environment@__scrt_narrow_environment_policy@@SAHXZ 0000000180015900 f i MSVCRT:utility.obj
 0001:00014938       NtCurrentTeb               0000000180015938 f i MSVCRT:utility.obj
 0001:00014944       __scrt_acquire_startup_lock 0000000180015944 f   MSVCRT:utility.obj
 0001:00014980       __scrt_dllmain_after_initialize_c 0000000180015980 f   MSVCRT:utility.obj
 0001:000149b4       __scrt_dllmain_before_initialize_c 00000001800159b4 f   MSVCRT:utility.obj
 0001:000149cc       __scrt_dllmain_crt_thread_attach 00000001800159cc f   MSVCRT:utility.obj
 0001:000149f4       __scrt_dllmain_crt_thread_detach 00000001800159f4 f   MSVCRT:utility.obj
 0001:00014a0c       __scrt_dllmain_exception_filter 0000000180015a0c f   MSVCRT:utility.obj
 0001:00014a6c       __scrt_dllmain_uninitialize_c 0000000180015a6c f   MSVCRT:utility.obj
 0001:00014a9c       __scrt_dllmain_uninitialize_critical 0000000180015a9c f   MSVCRT:utility.obj
 0001:00014ab0       __scrt_initialize_crt      0000000180015ab0 f   MSVCRT:utility.obj
 0001:00014afc       __scrt_initialize_onexit_tables 0000000180015afc f   MSVCRT:utility.obj
 0001:00014b88       __scrt_is_nonwritable_in_current_image 0000000180015b88 f   MSVCRT:utility.obj
 0001:00014c20       __scrt_release_startup_lock 0000000180015c20 f   MSVCRT:utility.obj
 0001:00014c44       __scrt_uninitialize_crt    0000000180015c44 f   MSVCRT:utility.obj
 0001:00014c70       _onexit                    0000000180015c70 f   MSVCRT:utility.obj
 0001:00014cac       at_quick_exit              0000000180015cac f   MSVCRT:utility.obj
 0001:00014ccc       atexit                     0000000180015ccc f   MSVCRT:utility.obj
 0001:00014ce4       __scrt_get_dyn_tls_init_callback 0000000180015ce4 f   MSVCRT:dyn_tls_init.obj
 0001:00014cec       __crt_debugger_hook        0000000180015cec f   MSVCRT:utility_desktop.obj
 0001:00014cf4       __scrt_fastfail            0000000180015cf4 f   MSVCRT:utility_desktop.obj
 0001:00014e40       __scrt_get_show_window_mode 0000000180015e40 f   MSVCRT:utility_desktop.obj
 0001:00014e7c       __scrt_initialize_mta      0000000180015e7c f   MSVCRT:utility_desktop.obj
 0001:00014e84       __scrt_initialize_winrt    0000000180015e84 f   MSVCRT:utility_desktop.obj
 0001:00014e88       __scrt_is_managed_app      0000000180015e88 f   MSVCRT:utility_desktop.obj
 0001:00014edc       __scrt_set_unhandled_exception_filter 0000000180015edc f   MSVCRT:utility_desktop.obj
 0001:00014eec       __scrt_exe_initialize_mta  0000000180015eec f   MSVCRT:utility_desktop.obj
 0001:00014eec       __scrt_stub_for_initialize_mta 0000000180015eec f   MSVCRT:utility_desktop.obj
 0001:00014ef0       __scrt_unhandled_exception_filter 0000000180015ef0 f   MSVCRT:utility_desktop.obj
 0001:00014f4c       _RTC_Initialize            0000000180015f4c f   MSVCRT:initsect.obj
 0001:00014f88       _RTC_Terminate             0000000180015f88 f   MSVCRT:initsect.obj
 0001:00014fc4       _guard_check_icall_nop     0000000180015fc4 f i MSVCRT:guard_support.obj
 0001:00014fc8       ReadNoFence64              0000000180015fc8 f i MSVCRT:guard_support.obj
 0001:00014fcc       ReadPointerNoFence         0000000180015fcc f i MSVCRT:guard_support.obj
 0001:00014fd0       __castguard_check_failure_debugbreak 0000000180015fd0 f i MSVCRT:guard_support.obj
 0001:00014fec       __castguard_check_failure_fastfail 0000000180015fec f i MSVCRT:guard_support.obj
 0001:00015010       __castguard_check_failure_nop 0000000180016010 f i MSVCRT:guard_support.obj
 0001:00015014       __castguard_check_failure_os_handled 0000000180016014 f i MSVCRT:guard_support.obj
 0001:00015090       __castguard_slow_path_check_debugbreak 0000000180016090 f i MSVCRT:guard_support.obj
 0001:000150c4       __castguard_slow_path_check_fastfail 00000001800160c4 f i MSVCRT:guard_support.obj
 0001:00015100       __castguard_slow_path_check_nop 0000000180016100 f i MSVCRT:guard_support.obj
 0001:00015104       __castguard_slow_path_check_os_handled 0000000180016104 f i MSVCRT:guard_support.obj
 0001:00015174       _guard_icall_checks_enforced 0000000180016174 f i MSVCRT:guard_support.obj
 0001:0001518c       _guard_rf_checks_enforced  000000018001618c f i MSVCRT:guard_support.obj
 0001:00015190       __isa_available_init       0000000180016190 f   MSVCRT:cpu_disp.obj
 0001:0001533c       _get_startup_argv_mode     000000018001633c f   MSVCRT:argv_mode.obj
 0001:00015344       __scrt_is_ucrt_dll_in_use  0000000180016344 f   MSVCRT:ucrt_detection.obj
 0001:00015350       RtlCaptureContext          0000000180016350 f   kernel32:KERNEL32.dll
 0001:00015356       RtlLookupFunctionEntry     0000000180016356 f   kernel32:KERNEL32.dll
 0001:0001535c       RtlVirtualUnwind           000000018001635c f   kernel32:KERNEL32.dll
 0001:00015362       UnhandledExceptionFilter   0000000180016362 f   kernel32:KERNEL32.dll
 0001:00015368       SetUnhandledExceptionFilter 0000000180016368 f   kernel32:KERNEL32.dll
 0001:0001536e       GetCurrentProcess          000000018001636e f   kernel32:KERNEL32.dll
 0001:00015374       TerminateProcess           0000000180016374 f   kernel32:KERNEL32.dll
 0001:0001537a       IsProcessorFeaturePresent  000000018001637a f   kernel32:KERNEL32.dll
 0001:00015380       QueryPerformanceCounter    0000000180016380 f   kernel32:KERNEL32.dll
 0001:00015386       GetCurrentProcessId        0000000180016386 f   kernel32:KERNEL32.dll
 0001:0001538c       GetCurrentThreadId         000000018001638c f   kernel32:KERNEL32.dll
 0001:00015392       GetSystemTimeAsFileTime    0000000180016392 f   kernel32:KERNEL32.dll
 0001:00015398       DisableThreadLibraryCalls  0000000180016398 f   kernel32:KERNEL32.dll
 0001:0001539e       InitializeSListHead        000000018001639e f   kernel32:KERNEL32.dll
 0001:000153a4       IsDebuggerPresent          00000001800163a4 f   kernel32:KERNEL32.dll
 0001:000153aa       GetStartupInfoW            00000001800163aa f   kernel32:KERNEL32.dll
 0001:000153b0       GetModuleHandleW           00000001800163b0 f   kernel32:KERNEL32.dll
 0001:000153b6       memset                     00000001800163b6 f   vcruntime:VCRUNTIME140.dll
 0001:000153bc       memcpy                     00000001800163bc f   vcruntime:VCRUNTIME140.dll
 0001:000153c2       __C_specific_handler       00000001800163c2 f   vcruntime:VCRUNTIME140.dll
 0001:000153c8       __std_type_info_destroy_list 00000001800163c8 f   vcruntime:VCRUNTIME140.dll
 0001:000153ce       __current_exception        00000001800163ce f   vcruntime:VCRUNTIME140.dll
 0001:000153d4       __current_exception_context 00000001800163d4 f   vcruntime:VCRUNTIME140.dll
 0001:000153da       strcmp                     00000001800163da f   ucrt:api-ms-win-crt-string-l1-1-0.dll
 0001:000153e0       strcat                     00000001800163e0 f   ucrt:api-ms-win-crt-string-l1-1-0.dll
 0001:000153e6       __stdio_common_vsprintf    00000001800163e6 f   ucrt:api-ms-win-crt-stdio-l1-1-0.dll
 0001:000153ec       free                       00000001800163ec f   ucrt:api-ms-win-crt-heap-l1-1-0.dll
 0001:000153f2       malloc                     00000001800163f2 f   ucrt:api-ms-win-crt-heap-l1-1-0.dll
 0001:000153f8       strlen                     00000001800163f8 f   ucrt:api-ms-win-crt-string-l1-1-0.dll
 0001:000153fe       _initterm                  00000001800163fe f   ucrt:api-ms-win-crt-runtime-l1-1-0.dll
 0001:00015404       _initterm_e                0000000180016404 f   ucrt:api-ms-win-crt-runtime-l1-1-0.dll
 0001:0001540a       _seh_filter_dll            000000018001640a f   ucrt:api-ms-win-crt-runtime-l1-1-0.dll
 0001:00015410       _configure_narrow_argv     0000000180016410 f   ucrt:api-ms-win-crt-runtime-l1-1-0.dll
 0001:00015416       _initialize_narrow_environment 0000000180016416 f   ucrt:api-ms-win-crt-runtime-l1-1-0.dll
 0001:0001541c       _initialize_onexit_table   000000018001641c f   ucrt:api-ms-win-crt-runtime-l1-1-0.dll
 0001:00015422       _register_onexit_function  0000000180016422 f   ucrt:api-ms-win-crt-runtime-l1-1-0.dll
 0001:00015428       _execute_onexit_table      0000000180016428 f   ucrt:api-ms-win-crt-runtime-l1-1-0.dll
 0001:0001542e       _crt_atexit                000000018001642e f   ucrt:api-ms-win-crt-runtime-l1-1-0.dll
 0001:00015434       _crt_at_quick_exit         0000000180016434 f   ucrt:api-ms-win-crt-runtime-l1-1-0.dll
 0001:0001543a       _cexit                     000000018001643a f   ucrt:api-ms-win-crt-runtime-l1-1-0.dll
 0001:00015440       terminate                  0000000180016440 f   ucrt:api-ms-win-crt-runtime-l1-1-0.dll
 0001:00015448       __acrt_initialize          0000000180016448 f   MSVCRT:ucrt_stubs.obj
 0001:00015448       __scrt_stub_for_acrt_initialize 0000000180016448 f   MSVCRT:ucrt_stubs.obj
 0001:00015448       __vcrt_initialize          0000000180016448 f   MSVCRT:ucrt_stubs.obj
 0001:0001544c       __acrt_thread_attach       000000018001644c f   MSVCRT:ucrt_stubs.obj
 0001:0001544c       __scrt_stub_for_acrt_thread_attach 000000018001644c f   MSVCRT:ucrt_stubs.obj
 0001:0001544c       __vcrt_thread_attach       000000018001644c f   MSVCRT:ucrt_stubs.obj
 0001:00015450       __acrt_thread_detach       0000000180016450 f   MSVCRT:ucrt_stubs.obj
 0001:00015450       __scrt_stub_for_acrt_thread_detach 0000000180016450 f   MSVCRT:ucrt_stubs.obj
 0001:00015450       __vcrt_thread_detach       0000000180016450 f   MSVCRT:ucrt_stubs.obj
 0001:00015454       __acrt_uninitialize        0000000180016454 f   MSVCRT:ucrt_stubs.obj
 0001:00015454       __scrt_stub_for_acrt_uninitialize 0000000180016454 f   MSVCRT:ucrt_stubs.obj
 0001:00015454       __vcrt_uninitialize        0000000180016454 f   MSVCRT:ucrt_stubs.obj
 0001:00015458       __acrt_uninitialize_critical 0000000180016458 f   MSVCRT:ucrt_stubs.obj
 0001:00015458       __scrt_stub_for_acrt_uninitialize_critical 0000000180016458 f   MSVCRT:ucrt_stubs.obj
 0001:00015458       __vcrt_uninitialize_critical 0000000180016458 f   MSVCRT:ucrt_stubs.obj
 0001:0001545c       __scrt_stub_for_is_c_termination_complete 000000018001645c f   MSVCRT:ucrt_stubs.obj
 0001:0001545c       _is_c_termination_complete 000000018001645c f   MSVCRT:ucrt_stubs.obj
 0001:00015470       _guard_dispatch_icall_nop  0000000180016470 f   MSVCRT:guard_dispatch.obj
 0001:00015490       _guard_xfg_dispatch_icall_nop 0000000180016490 f   MSVCRT:guard_xfg_dispatch.obj
 0002:00000000       __imp_GetCurrentThreadId   0000000180017000     kernel32:KERNEL32.dll
 0002:00000008       __imp_GetCurrentProcessId  0000000180017008     kernel32:KERNEL32.dll
 0002:00000010       __imp_RtlCaptureContext    0000000180017010     kernel32:KERNEL32.dll
 0002:00000018       __imp_RtlLookupFunctionEntry 0000000180017018     kernel32:KERNEL32.dll
 0002:00000020       __imp_RtlVirtualUnwind     0000000180017020     kernel32:KERNEL32.dll
 0002:00000028       __imp_UnhandledExceptionFilter 0000000180017028     kernel32:KERNEL32.dll
 0002:00000030       __imp_GetSystemTimeAsFileTime 0000000180017030     kernel32:KERNEL32.dll
 0002:00000038       __imp_DisableThreadLibraryCalls 0000000180017038     kernel32:KERNEL32.dll
 0002:00000040       __imp_InitializeSListHead  0000000180017040     kernel32:KERNEL32.dll
 0002:00000048       __imp_IsDebuggerPresent    0000000180017048     kernel32:KERNEL32.dll
 0002:00000050       __imp_GetStartupInfoW      0000000180017050     kernel32:KERNEL32.dll
 0002:00000058       __imp_GetModuleHandleW     0000000180017058     kernel32:KERNEL32.dll
 0002:00000060       __imp_IsProcessorFeaturePresent 0000000180017060     kernel32:KERNEL32.dll
 0002:00000068       __imp_TerminateProcess     0000000180017068     kernel32:KERNEL32.dll
 0002:00000070       __imp_GetCurrentProcess    0000000180017070     kernel32:KERNEL32.dll
 0002:00000078       __imp_QueryPerformanceCounter 0000000180017078     kernel32:KERNEL32.dll
 0002:00000080       __imp_SetUnhandledExceptionFilter 0000000180017080     kernel32:KERNEL32.dll
 0002:00000088       \177KERNEL32_NULL_THUNK_DATA 0000000180017088     kernel32:KERNEL32.dll
 0002:00000090       __imp_memcpy               0000000180017090     vcruntime:VCRUNTIME140.dll
 0002:00000098       __imp___current_exception_context 0000000180017098     vcruntime:VCRUNTIME140.dll
 0002:000000a0       __imp_memset               00000001800170a0     vcruntime:VCRUNTIME140.dll
 0002:000000a8       __imp___std_type_info_destroy_list 00000001800170a8     vcruntime:VCRUNTIME140.dll
 0002:000000b0       __imp___C_specific_handler 00000001800170b0     vcruntime:VCRUNTIME140.dll
 0002:000000b8       __imp___current_exception  00000001800170b8     vcruntime:VCRUNTIME140.dll
 0002:000000c0       \177VCRUNTIME140_NULL_THUNK_DATA 00000001800170c0     vcruntime:VCRUNTIME140.dll
 0002:000000c8       __imp_malloc               00000001800170c8     ucrt:api-ms-win-crt-heap-l1-1-0.dll
 0002:000000d0       __imp_free                 00000001800170d0     ucrt:api-ms-win-crt-heap-l1-1-0.dll
 0002:000000d8       \177api-ms-win-crt-heap-l1-1-0_NULL_THUNK_DATA 00000001800170d8     ucrt:api-ms-win-crt-heap-l1-1-0.dll
 0002:000000e0       __imp__initialize_narrow_environment 00000001800170e0     ucrt:api-ms-win-crt-runtime-l1-1-0.dll
 0002:000000e8       __imp__configure_narrow_argv 00000001800170e8     ucrt:api-ms-win-crt-runtime-l1-1-0.dll
 0002:000000f0       __imp__seh_filter_dll      00000001800170f0     ucrt:api-ms-win-crt-runtime-l1-1-0.dll
 0002:000000f8       __imp__initterm_e          00000001800170f8     ucrt:api-ms-win-crt-runtime-l1-1-0.dll
 0002:00000100       __imp__register_onexit_function 0000000180017100     ucrt:api-ms-win-crt-runtime-l1-1-0.dll
 0002:00000108       __imp__execute_onexit_table 0000000180017108     ucrt:api-ms-win-crt-runtime-l1-1-0.dll
 0002:00000110       __imp__crt_atexit          0000000180017110     ucrt:api-ms-win-crt-runtime-l1-1-0.dll
 0002:00000118       __imp__crt_at_quick_exit   0000000180017118     ucrt:api-ms-win-crt-runtime-l1-1-0.dll
 0002:00000120       __imp__cexit               0000000180017120     ucrt:api-ms-win-crt-runtime-l1-1-0.dll
 0002:00000128       __imp_terminate            0000000180017128     ucrt:api-ms-win-crt-runtime-l1-1-0.dll
 0002:00000130       __imp__initialize_onexit_table 0000000180017130     ucrt:api-ms-win-crt-runtime-l1-1-0.dll
 0002:00000138       __imp__initterm            0000000180017138     ucrt:api-ms-win-crt-runtime-l1-1-0.dll
 0002:00000140       \177api-ms-win-crt-runtime-l1-1-0_NULL_THUNK_DATA 0000000180017140     ucrt:api-ms-win-crt-runtime-l1-1-0.dll
 0002:00000148       __imp___stdio_common_vsprintf 0000000180017148     ucrt:api-ms-win-crt-stdio-l1-1-0.dll
 0002:00000150       \177api-ms-win-crt-stdio-l1-1-0_NULL_THUNK_DATA 0000000180017150     ucrt:api-ms-win-crt-stdio-l1-1-0.dll
 0002:00000158       __imp_strlen               0000000180017158     ucrt:api-ms-win-crt-string-l1-1-0.dll
 0002:00000160       __imp_strcat               0000000180017160     ucrt:api-ms-win-crt-string-l1-1-0.dll
 0002:00000168       __imp_strcmp               0000000180017168     ucrt:api-ms-win-crt-string-l1-1-0.dll
 0002:00000170       \177api-ms-win-crt-string-l1-1-0_NULL_THUNK_DATA 0000000180017170     ucrt:api-ms-win-crt-string-l1-1-0.dll
 0002:00000178       __imp_covrtDeleteStateflowInstanceData 0000000180017178     libcovrt:libcovrt.dll
 0002:00000180       __imp_covrtCreateStateflowInstanceData 0000000180017180     libcovrt:libcovrt.dll
 0002:00000188       __imp_covrtTransInitFcn    0000000180017188     libcovrt:libcovrt.dll
 0002:00000190       __imp_covrtEmlForEval      0000000180017190     libcovrt:libcovrt.dll
 0002:00000198       __imp_covrtEmlForInitFcn   0000000180017198     libcovrt:libcovrt.dll
 0002:000001a0       __imp_covrtEmlSaturationInitFcn 00000001800171a0     libcovrt:libcovrt.dll
 0002:000001a8       __imp_covrtSaturationUpdateFcn 00000001800171a8     libcovrt:libcovrt.dll
 0002:000001b0       __imp_covrtEmlFcnEval      00000001800171b0     libcovrt:libcovrt.dll
 0002:000001b8       __imp_covrtEmlFcnInitFcn   00000001800171b8     libcovrt:libcovrt.dll
 0002:000001c0       __imp_covrtEmlInitFcn      00000001800171c0     libcovrt:libcovrt.dll
 0002:000001c8       __imp_covrtSigUpdateFcn    00000001800171c8     libcovrt:libcovrt.dll
 0002:000001d0       __imp_covrtChartInitFcn    00000001800171d0     libcovrt:libcovrt.dll
 0002:000001d8       __imp_covrtStateInitFcn    00000001800171d8     libcovrt:libcovrt.dll
 0002:000001e0       \177libcovrt_NULL_THUNK_DATA 00000001800171e0     libcovrt:libcovrt.dll
 0002:000001e8       __imp_emlrtDynamicBoundsCheckR2012b 00000001800171e8     libemlrt:libemlrt.dll
 0002:000001f0       __imp_emlrtIntegerCheckR2012b 00000001800171f0     libemlrt:libemlrt.dll
 0002:000001f8       __imp_emlrtLicenseCheckR2022a 00000001800171f8     libemlrt:libemlrt.dll
 0002:00000200       __imp_emlrtForLoopVectorCheckR2021a 0000000180017200     libemlrt:libemlrt.dll
 0002:00000208       \177libemlrt_NULL_THUNK_DATA 0000000180017208     libemlrt:libemlrt.dll
 0002:00000210       __imp_mexWarnMsgTxt_800    0000000180017210     libmex:libmex.dll
 0002:00000218       __imp_mexErrMsgTxt_800     0000000180017218     libmex:libmex.dll
 0002:00000220       __imp_mexMakeArrayPersistent_800 0000000180017220     libmex:libmex.dll
 0002:00000228       __imp_mexLock_800          0000000180017228     libmex:libmex.dll
 0002:00000230       __imp_mexUnlock_800        0000000180017230     libmex:libmex.dll
 0002:00000238       __imp_mexIsLocked_800      0000000180017238     libmex:libmex.dll
 0002:00000240       __imp_mexCallMATLAB_800    0000000180017240     libmex:libmex.dll
 0002:00000248       \177libmex_NULL_THUNK_DATA 0000000180017248     libmex:libmex.dll
 0002:00000250       __imp_getnumcores          0000000180017250     libmwgetnumcores:libmwgetnumcores.dll
 0002:00000258       \177libmwgetnumcores_NULL_THUNK_DATA 0000000180017258     libmwgetnumcores:libmwgetnumcores.dll
 0002:00000260       __imp_grayto8_real64       0000000180017260     libmwgrayto8:libmwgrayto8.dll
 0002:00000268       \177libmwgrayto8_NULL_THUNK_DATA 0000000180017268     libmwgrayto8:libmwgrayto8.dll
 0002:00000270       __imp_muDoubleScalarRound  0000000180017270     libmwmathutil:libmwmathutil.dll
 0002:00000278       __imp_muDoubleScalarIsInf  0000000180017278     libmwmathutil:libmwmathutil.dll
 0002:00000280       __imp_muDoubleScalarFloor  0000000180017280     libmwmathutil:libmwmathutil.dll
 0002:00000288       __imp_muDoubleScalarIsNaN  0000000180017288     libmwmathutil:libmwmathutil.dll
 0002:00000290       \177libmwmathutil_NULL_THUNK_DATA 0000000180017290     libmwmathutil:libmwmathutil.dll
 0002:00000298       __imp_rgb2gray_tbb_uint8   0000000180017298     libmwrgb2gray_tbb:libmwrgb2gray_tbb.dll
 0002:000002a0       \177libmwrgb2gray_tbb_NULL_THUNK_DATA 00000001800172a0     libmwrgb2gray_tbb:libmwrgb2gray_tbb.dll
 0002:000002a8       __imp_mxCreateDoubleScalar_800 00000001800172a8     libmx:libmx.dll
 0002:000002b0       __imp_mxGetN_800           00000001800172b0     libmx:libmx.dll
 0002:000002b8       __imp_mxIsComplex_800      00000001800172b8     libmx:libmx.dll
 0002:000002c0       __imp_mxIsNumeric_800      00000001800172c0     libmx:libmx.dll
 0002:000002c8       __imp_mxGetClassID_800     00000001800172c8     libmx:libmx.dll
 0002:000002d0       __imp_mxGetM_800           00000001800172d0     libmx:libmx.dll
 0002:000002d8       __imp_mxCalloc_800         00000001800172d8     libmx:libmx.dll
 0002:000002e0       __imp_mxIsChar_800         00000001800172e0     libmx:libmx.dll
 0002:000002e8       __imp_mxCreateStructMatrix_800 00000001800172e8     libmx:libmx.dll
 0002:000002f0       __imp_mxCreateCellMatrix_800 00000001800172f0     libmx:libmx.dll
 0002:000002f8       __imp_mxCreateString_800   00000001800172f8     libmx:libmx.dll
 0002:00000300       __imp_mxSetField_800       0000000180017300     libmx:libmx.dll
 0002:00000308       __imp_mxSetCell_800        0000000180017308     libmx:libmx.dll
 0002:00000310       __imp_mxDuplicateArray_800 0000000180017310     libmx:libmx.dll
 0002:00000318       __imp_mxGetString_800      0000000180017318     libmx:libmx.dll
 0002:00000320       __imp_mxCreateDoubleMatrix_800 0000000180017320     libmx:libmx.dll
 0002:00000328       __imp_mxDestroyArray_800   0000000180017328     libmx:libmx.dll
 0002:00000330       __imp_mxGetPr_800          0000000180017330     libmx:libmx.dll
 0002:00000338       __imp_mxGetScalar_800      0000000180017338     libmx:libmx.dll
 0002:00000340       __imp_mxGetInf_800         0000000180017340     libmx:libmx.dll
 0002:00000348       \177libmx_NULL_THUNK_DATA  0000000180017348     libmx:libmx.dll
 0002:00000350       __imp_utFree               0000000180017350     libut:libut.dll
 0002:00000358       __imp_utMalloc             0000000180017358     libut:libut.dll
 0002:00000360       \177libut_NULL_THUNK_DATA  0000000180017360     libut:libut.dll
 0002:00000368       __imp_call_sf_machine_global_method_dispatcher 0000000180017368     sf_runtime:sf_runtime.dll
 0002:00000370       __imp_callMdlMethodAndReportError 0000000180017370     sf_runtime:sf_runtime.dll
 0002:00000378       __imp_sf_get_hasSeparateUpdateOutputs 0000000180017378     sf_runtime:sf_runtime.dll
 0002:00000380       __imp_sf_mex_error_direct_call 0000000180017380     sf_runtime:sf_runtime.dll
 0002:00000388       __imp_sf_data_saturate_error 0000000180017388     sf_runtime:sf_runtime.dll
 0002:00000390       __imp_sf_data_overflow_error 0000000180017390     sf_runtime:sf_runtime.dll
 0002:00000398       __imp_sf_mex_listen_for_ctrl_c 0000000180017398     sf_runtime:sf_runtime.dll
 0002:000003a0       __imp_ssGetOutputPortSignal_wrapper 00000001800173a0     sf_runtime:sf_runtime.dll
 0002:000003a8       __imp_ssGetInputPortSignal_wrapper 00000001800173a8     sf_runtime:sf_runtime.dll
 0002:000003b0       __imp_sf_mex_import        00000001800173b0     sf_runtime:sf_runtime.dll
 0002:000003b8       __imp_sf_mex_destroy       00000001800173b8     sf_runtime:sf_runtime.dll
 0002:000003c0       __imp_sf_mex_dup           00000001800173c0     sf_runtime:sf_runtime.dll
 0002:000003c8       __imp_sf_mex_assign        00000001800173c8     sf_runtime:sf_runtime.dll
 0002:000003d0       __imp_sf_mex_getcell       00000001800173d0     sf_runtime:sf_runtime.dll
 0002:000003d8       __imp_sf_mex_setcell       00000001800173d8     sf_runtime:sf_runtime.dll
 0002:000003e0       __imp_sf_mex_createcellmatrix 00000001800173e0     sf_runtime:sf_runtime.dll
 0002:000003e8       __imp_sf_mex_create        00000001800173e8     sf_runtime:sf_runtime.dll
 0002:000003f0       __imp_sf_mex_error_message 00000001800173f0     sf_runtime:sf_runtime.dll
 0002:000003f8       __imp_sf_mex_call          00000001800173f8     sf_runtime:sf_runtime.dll
 0002:00000400       __imp_mdlProcessParamsCommon 0000000180017400     sf_runtime:sf_runtime.dll
 0002:00000408       __imp_sf_set_work_widths   0000000180017408     sf_runtime:sf_runtime.dll
 0002:00000410       __imp_sf_get_time          0000000180017410     sf_runtime:sf_runtime.dll
 0002:00000418       __imp_sf_clear_rtw_identifier 0000000180017418     sf_runtime:sf_runtime.dll
 0002:00000420       __imp_sim_mode_is_external 0000000180017420     sf_runtime:sf_runtime.dll
 0002:00000428       __imp_sim_mode_is_rtw_gen  0000000180017428     sf_runtime:sf_runtime.dll
 0002:00000430       __imp_sfSetAnimationVectors 0000000180017430     sf_runtime:sf_runtime.dll
 0002:00000438       __imp_sf_get_chart_instance_ptr 0000000180017438     sf_runtime:sf_runtime.dll
 0002:00000440       __imp_sfrtGetCovrtInstance 0000000180017440     sf_runtime:sf_runtime.dll
 0002:00000448       __imp_sfrtGetEmlrtCtx      0000000180017448     sf_runtime:sf_runtime.dll
 0002:00000450       __imp_sf_reset_warnings_ChartRunTimeInfo 0000000180017450     sf_runtime:sf_runtime.dll
 0002:00000458       __imp_sf_free_ChartRunTimeInfo 0000000180017458     sf_runtime:sf_runtime.dll
 0002:00000460       __imp_sf_init_ChartRunTimeInfo 0000000180017460     sf_runtime:sf_runtime.dll
 0002:00000468       __imp_sf_mex_decode        0000000180017468     sf_runtime:sf_runtime.dll
 0002:00000470       __imp_sf_load_rtw_optimization_info 0000000180017470     sf_runtime:sf_runtime.dll
 0002:00000478       __imp_sf_clear_error_manager_info 0000000180017478     sf_runtime:sf_runtime.dll
 0002:00000480       __imp_getRuntimeInstanceInfoAsVoid 0000000180017480     sf_runtime:sf_runtime.dll
 0002:00000488       __imp_sf_get_ChartInfoStruct_CodeGen 0000000180017488     sf_runtime:sf_runtime.dll
 0002:00000490       \177sf_runtime_NULL_THUNK_DATA 0000000180017490     sf_runtime:sf_runtime.dll
 0002:00000498       __guard_check_icall_fptr   0000000180017498     MSVCRT:guard_support.obj
 0002:000004a0       __guard_xfg_check_icall_fptr 00000001800174a0     MSVCRT:guard_support.obj
 0002:000004a8       __guard_dispatch_icall_fptr 00000001800174a8     MSVCRT:guard_support.obj
 0002:000004b0       __guard_xfg_dispatch_icall_fptr 00000001800174b0     MSVCRT:guard_support.obj
 0002:000004b8       __guard_xfg_table_dispatch_icall_fptr 00000001800174b8     MSVCRT:guard_support.obj
 0002:000004c0       __castguard_check_failure_os_handled_fptr 00000001800174c0     MSVCRT:guard_support.obj
 0002:000004c8       __guard_memcpy_fptr        00000001800174c8     vcruntime:softmemtag.obj
 0002:000004d0       __xc_a                     00000001800174d0     MSVCRT:initializers.obj
 0002:000004d8       __xc_z                     00000001800174d8     MSVCRT:initializers.obj
 0002:000004e0       __xi_a                     00000001800174e0     MSVCRT:initializers.obj
 0002:000004e8       __xi_z                     00000001800174e8     MSVCRT:initializers.obj
 0002:000004f0       __xp_a                     00000001800174f0     MSVCRT:initializers.obj
 0002:000004f8       __xp_z                     00000001800174f8     MSVCRT:initializers.obj
 0002:00000500       __xt_a                     0000000180017500     MSVCRT:initializers.obj
 0002:00000508       __xt_z                     0000000180017508     MSVCRT:initializers.obj
 0002:00000510       __real@4174ffbd70000000    0000000180017510     flightControlSystem_sfun.obj
 0002:00000518       __real@418f503920000000    0000000180017518     flightControlSystem_sfun.obj
 0002:00000520       __real@41b92f8712000000    0000000180017520     flightControlSystem_sfun.obj
 0002:00000528       __real@41bad2f744000000    0000000180017528     flightControlSystem_sfun.obj
 0002:00000530       __real@41cb1a5378800000    0000000180017530     flightControlSystem_sfun.obj
 0002:00000538       __real@41dd4ff610400000    0000000180017538     flightControlSystem_sfun.obj
 0002:00000540       __real@41e3f2a9e2200000    0000000180017540     flightControlSystem_sfun.obj
 0002:00000548       __real@41e3fa3198000000    0000000180017548     flightControlSystem_sfun.obj
 0002:00000550       __real@41e4f97bc3200000    0000000180017550     flightControlSystem_sfun.obj
 0002:00000558       __real@41e5ea5a70200000    0000000180017558     flightControlSystem_sfun.obj
 0002:00000560       __real@41eb30c5b0800000    0000000180017560     flightControlSystem_sfun.obj
 0002:00000568       __real@41ed0b63b6c00000    0000000180017568     flightControlSystem_sfun.obj
 0002:00000578       __real@3ff0000000000000    0000000180017578     c4_flightControlSystem.obj
 0002:00000580       __real@4000000000000000    0000000180017580     c4_flightControlSystem.obj
 0002:00000588       __real@406fe00000000000    0000000180017588     c4_flightControlSystem.obj
 0002:00000590       __real@40d2c00000000000    0000000180017590     c4_flightControlSystem.obj
 0002:00000598       __real@41decac454c00000    0000000180017598     c4_flightControlSystem.obj
 0002:000005a0       __real@41e418d34a000000    00000001800175a0     c4_flightControlSystem.obj
 0002:000005a8       __real@41edb72289e00000    00000001800175a8     c4_flightControlSystem.obj
 0002:000005b0       __real@41edf91331e00000    00000001800175b0     c4_flightControlSystem.obj
 0002:000005c0       __xmm@80000000000000008000000000000000 00000001800175c0     c4_flightControlSystem.obj
 0002:000005d8       __real@0000000000000000    00000001800175d8     c11_flightControlSystem.obj
 0002:000005e0       __real@4070000000000000    00000001800175e0     c11_flightControlSystem.obj
 0002:000005e8       __real@40cc200000000000    00000001800175e8     c11_flightControlSystem.obj
 0002:000005f0       __real@41c1d0c9a8000000    00000001800175f0     c11_flightControlSystem.obj
 0002:000005f8       __real@41c977152e800000    00000001800175f8     c11_flightControlSystem.obj
 0002:00000600       __real@41e6b2198da00000    0000000180017600     c11_flightControlSystem.obj
 0002:00000608       __real@41ee6eb7bf000000    0000000180017608     c11_flightControlSystem.obj
 0002:00000610       DYNAMIC_DIMENSION_DEF      0000000180017610     flightControlSystem_sfun_registry.obj
 0002:00000628       __real@4010000000000000    0000000180017628     flightControlSystem_sfun_registry.obj
 0002:00000630       __real@41602cbca0000000    0000000180017630     flightControlSystem_sfun_registry.obj
 0002:00000638       __real@bff0000000000000    0000000180017638     flightControlSystem_sfun_registry.obj
 0002:00000650       _pDefaultRawDllMain        0000000180017650     MSVCRT:dll_dllmain.obj
 0002:00000650       _pRawDllMain               0000000180017650     MSVCRT:dll_dllmain.obj
 0002:00000660       __xmm@ffffffffffffffffffffffffffffffff 0000000180017660     MSVCRT:utility.obj
 0002:00000670       _load_config_used          0000000180017670     MSVCRT:loadcfg.obj
 0002:00000800       __CastGuardVftablesStart   0000000180017800     MSVCRT:guard_support.obj
 0002:00000880       __CastGuardVftablesEnd     0000000180017880     MSVCRT:guard_support.obj
 0002:00000900       __volatile_metadata        0000000180017900     <linker-defined>
 0002:00000d18       __rtc_iaa                  0000000180017d18     MSVCRT:initsect.obj
 0002:00000d20       __rtc_izz                  0000000180017d20     MSVCRT:initsect.obj
 0002:00000d28       __rtc_taa                  0000000180017d28     MSVCRT:initsect.obj
 0002:00000d30       __rtc_tzz                  0000000180017d30     MSVCRT:initsect.obj
 0002:000018c4       __IMPORT_DESCRIPTOR_libmwgrayto8 00000001800188c4     libmwgrayto8:libmwgrayto8.dll
 0002:000018d8       __IMPORT_DESCRIPTOR_libmwrgb2gray_tbb 00000001800188d8     libmwrgb2gray_tbb:libmwrgb2gray_tbb.dll
 0002:000018ec       __IMPORT_DESCRIPTOR_libmwgetnumcores 00000001800188ec     libmwgetnumcores:libmwgetnumcores.dll
 0002:00001900       __IMPORT_DESCRIPTOR_sf_runtime 0000000180018900     sf_runtime:sf_runtime.dll
 0002:00001914       __IMPORT_DESCRIPTOR_libmx  0000000180018914     libmx:libmx.dll
 0002:00001928       __IMPORT_DESCRIPTOR_libmex 0000000180018928     libmex:libmex.dll
 0002:0000193c       __IMPORT_DESCRIPTOR_libut  000000018001893c     libut:libut.dll
 0002:00001950       __IMPORT_DESCRIPTOR_libmwmathutil 0000000180018950     libmwmathutil:libmwmathutil.dll
 0002:00001964       __IMPORT_DESCRIPTOR_libemlrt 0000000180018964     libemlrt:libemlrt.dll
 0002:00001978       __IMPORT_DESCRIPTOR_libcovrt 0000000180018978     libcovrt:libcovrt.dll
 0002:0000198c       __IMPORT_DESCRIPTOR_KERNEL32 000000018001898c     kernel32:KERNEL32.dll
 0002:000019a0       __IMPORT_DESCRIPTOR_VCRUNTIME140 00000001800189a0     vcruntime:VCRUNTIME140.dll
 0002:000019b4       __IMPORT_DESCRIPTOR_api-ms-win-crt-string-l1-1-0 00000001800189b4     ucrt:api-ms-win-crt-string-l1-1-0.dll
 0002:000019c8       __IMPORT_DESCRIPTOR_api-ms-win-crt-stdio-l1-1-0 00000001800189c8     ucrt:api-ms-win-crt-stdio-l1-1-0.dll
 0002:000019dc       __IMPORT_DESCRIPTOR_api-ms-win-crt-heap-l1-1-0 00000001800189dc     ucrt:api-ms-win-crt-heap-l1-1-0.dll
 0002:000019f0       __IMPORT_DESCRIPTOR_api-ms-win-crt-runtime-l1-1-0 00000001800189f0     ucrt:api-ms-win-crt-runtime-l1-1-0.dll
 0002:00001a04       __NULL_IMPORT_DESCRIPTOR   0000000180018a04     libmwgrayto8:libmwgrayto8.dll
 0003:00005e50       DYNAMIC_DIMENSION          000000018001fe50     flightControlSystem_sfun_registry.obj
 0003:00008460       __security_cookie_complement 0000000180022460     MSVCRT:gs_cookie.obj
 0003:00008468       __security_cookie          0000000180022468     MSVCRT:gs_cookie.obj
 0003:00008470       _fltused                   0000000180022470     MSVCRT:fltused.obj
 0003:00008480       __scrt_native_dllmain_reason 0000000180022480     MSVCRT:utility.obj
 0003:00008488       __isa_available            0000000180022488     MSVCRT:cpu_disp.obj
 0003:0000848c       __isa_enabled              000000018002248c     MSVCRT:cpu_disp.obj
 0003:00008490       __memset_fast_string_threshold 0000000180022490     MSVCRT:cpu_disp.obj
 0003:00008498       __memset_nt_threshold      0000000180022498     MSVCRT:cpu_disp.obj
 0003:000084a0       __scrt_ucrt_dll_is_in_use  00000001800224a0     MSVCRT:ucrt_stubs.obj
 0003:00009610       ?__type_info_root_node@@3U__type_info_node@@A 0000000180023610     MSVCRT:tncleanup.obj
 0003:00009620       ?_OptionsStorage@?1??__local_stdio_printf_options@@9@4_KA 0000000180023620     MSVCRT:default_local_stdio_options.obj
 0003:00009628       ?_OptionsStorage@?1??__local_stdio_scanf_options@@9@4_KA 0000000180023628     MSVCRT:default_local_stdio_options.obj
 0003:00009630       __scrt_current_native_startup_state 0000000180023630     MSVCRT:utility.obj
 0003:00009638       __scrt_native_startup_lock 0000000180023638     MSVCRT:utility.obj
 0003:00009678       __scrt_debugger_hook_flag  0000000180023678     MSVCRT:utility_desktop.obj
 0003:0000967c       __favor                    000000018002367c     MSVCRT:cpu_disp.obj
 0003:00009680       ?_OptionsStorage@?1??__local_stdio_printf_options@@9@9 0000000180023680     <common>
 0003:00009688       __dyn_tls_init_callback    0000000180023688     <common>

 entry point at        0001:000146e4

 Static symbols

 0000:00000000       _volmd                     0000000180000000     c11_flightControlSystem.obj
 0000:00000000       _volmd                     0000000180000000     c4_flightControlSystem.obj
 0000:00000000       .debug$S                   0000000180000000     flightControlSystem_sfun.exp
 0000:00000000       _volmd                     0000000180000000     flightControlSystem_sfun.obj
 0000:00000000       _volmd                     0000000180000000     flightControlSystem_sfun_registry.obj
 0000:00000000       .debug$S                   0000000180000000     ucrt:api-ms-win-crt-heap-l1-1-0.dll
 0000:00000000       .debug$S                   0000000180000000     ucrt:api-ms-win-crt-heap-l1-1-0.dll
 0000:00000000       .debug$S                   0000000180000000     ucrt:api-ms-win-crt-runtime-l1-1-0.dll
 0000:00000000       .debug$S                   0000000180000000     ucrt:api-ms-win-crt-runtime-l1-1-0.dll
 0000:00000000       .debug$S                   0000000180000000     ucrt:api-ms-win-crt-runtime-l1-1-0.dll
 0000:00000000       .debug$S                   0000000180000000     ucrt:api-ms-win-crt-runtime-l1-1-0.dll
 0000:00000000       .debug$S                   0000000180000000     ucrt:api-ms-win-crt-runtime-l1-1-0.dll
 0000:00000000       .debug$S                   0000000180000000     ucrt:api-ms-win-crt-runtime-l1-1-0.dll
 0000:00000000       .debug$S                   0000000180000000     ucrt:api-ms-win-crt-runtime-l1-1-0.dll
 0000:00000000       .debug$S                   0000000180000000     ucrt:api-ms-win-crt-runtime-l1-1-0.dll
 0000:00000000       .debug$S                   0000000180000000     ucrt:api-ms-win-crt-runtime-l1-1-0.dll
 0000:00000000       .debug$S                   0000000180000000     ucrt:api-ms-win-crt-runtime-l1-1-0.dll
 0000:00000000       .debug$S                   0000000180000000     ucrt:api-ms-win-crt-runtime-l1-1-0.dll
 0000:00000000       .debug$S                   0000000180000000     ucrt:api-ms-win-crt-runtime-l1-1-0.dll
 0000:00000000       .debug$S                   0000000180000000     ucrt:api-ms-win-crt-stdio-l1-1-0.dll
 0000:00000000       .debug$S                   0000000180000000     ucrt:api-ms-win-crt-string-l1-1-0.dll
 0000:00000000       .debug$S                   0000000180000000     ucrt:api-ms-win-crt-string-l1-1-0.dll
 0000:00000000       .debug$S                   0000000180000000     ucrt:api-ms-win-crt-string-l1-1-0.dll
 0000:00000000       .debug$S                   0000000180000000     kernel32:KERNEL32.dll
 0000:00000000       .debug$S                   0000000180000000     kernel32:KERNEL32.dll
 0000:00000000       .debug$S                   0000000180000000     kernel32:KERNEL32.dll
 0000:00000000       .debug$S                   0000000180000000     kernel32:KERNEL32.dll
 0000:00000000       .debug$S                   0000000180000000     kernel32:KERNEL32.dll
 0000:00000000       .debug$S                   0000000180000000     kernel32:KERNEL32.dll
 0000:00000000       .debug$S                   0000000180000000     kernel32:KERNEL32.dll
 0000:00000000       .debug$S                   0000000180000000     kernel32:KERNEL32.dll
 0000:00000000       .debug$S                   0000000180000000     kernel32:KERNEL32.dll
 0000:00000000       .debug$S                   0000000180000000     kernel32:KERNEL32.dll
 0000:00000000       .debug$S                   0000000180000000     kernel32:KERNEL32.dll
 0000:00000000       .debug$S                   0000000180000000     kernel32:KERNEL32.dll
 0000:00000000       .debug$S                   0000000180000000     kernel32:KERNEL32.dll
 0000:00000000       .debug$S                   0000000180000000     kernel32:KERNEL32.dll
 0000:00000000       .debug$S                   0000000180000000     kernel32:KERNEL32.dll
 0000:00000000       .debug$S                   0000000180000000     kernel32:KERNEL32.dll
 0000:00000000       .debug$S                   0000000180000000     kernel32:KERNEL32.dll
 0000:00000000       .debug$S                   0000000180000000     libcovrt:libcovrt.dll
 0000:00000000       .debug$S                   0000000180000000     libcovrt:libcovrt.dll
 0000:00000000       .debug$S                   0000000180000000     libcovrt:libcovrt.dll
 0000:00000000       .debug$S                   0000000180000000     libcovrt:libcovrt.dll
 0000:00000000       .debug$S                   0000000180000000     libcovrt:libcovrt.dll
 0000:00000000       .debug$S                   0000000180000000     libcovrt:libcovrt.dll
 0000:00000000       .debug$S                   0000000180000000     libcovrt:libcovrt.dll
 0000:00000000       .debug$S                   0000000180000000     libcovrt:libcovrt.dll
 0000:00000000       .debug$S                   0000000180000000     libcovrt:libcovrt.dll
 0000:00000000       .debug$S                   0000000180000000     libcovrt:libcovrt.dll
 0000:00000000       .debug$S                   0000000180000000     libcovrt:libcovrt.dll
 0000:00000000       .debug$S                   0000000180000000     libcovrt:libcovrt.dll
 0000:00000000       .debug$S                   0000000180000000     libcovrt:libcovrt.dll
 0000:00000000       .debug$S                   0000000180000000     libemlrt:libemlrt.dll
 0000:00000000       .debug$S                   0000000180000000     libemlrt:libemlrt.dll
 0000:00000000       .debug$S                   0000000180000000     libemlrt:libemlrt.dll
 0000:00000000       .debug$S                   0000000180000000     libemlrt:libemlrt.dll
 0000:00000000       .debug$S                   0000000180000000     libmex:libmex.dll
 0000:00000000       .debug$S                   0000000180000000     libmex:libmex.dll
 0000:00000000       .debug$S                   0000000180000000     libmex:libmex.dll
 0000:00000000       .debug$S                   0000000180000000     libmex:libmex.dll
 0000:00000000       .debug$S                   0000000180000000     libmex:libmex.dll
 0000:00000000       .debug$S                   0000000180000000     libmex:libmex.dll
 0000:00000000       .debug$S                   0000000180000000     libmex:libmex.dll
 0000:00000000       .debug$S                   0000000180000000     libmwgetnumcores:libmwgetnumcores.dll
 0000:00000000       .debug$S                   0000000180000000     libmwgrayto8:libmwgrayto8.dll
 0000:00000000       .debug$S                   0000000180000000     libmwmathutil:libmwmathutil.dll
 0000:00000000       .debug$S                   0000000180000000     libmwmathutil:libmwmathutil.dll
 0000:00000000       .debug$S                   0000000180000000     libmwmathutil:libmwmathutil.dll
 0000:00000000       .debug$S                   0000000180000000     libmwmathutil:libmwmathutil.dll
 0000:00000000       .debug$S                   0000000180000000     libmwrgb2gray_tbb:libmwrgb2gray_tbb.dll
 0000:00000000       .debug$S                   0000000180000000     libmx:libmx.dll
 0000:00000000       .debug$S                   0000000180000000     libmx:libmx.dll
 0000:00000000       .debug$S                   0000000180000000     libmx:libmx.dll
 0000:00000000       .debug$S                   0000000180000000     libmx:libmx.dll
 0000:00000000       .debug$S                   0000000180000000     libmx:libmx.dll
 0000:00000000       .debug$S                   0000000180000000     libmx:libmx.dll
 0000:00000000       .debug$S                   0000000180000000     libmx:libmx.dll
 0000:00000000       .debug$S                   0000000180000000     libmx:libmx.dll
 0000:00000000       .debug$S                   0000000180000000     libmx:libmx.dll
 0000:00000000       .debug$S                   0000000180000000     libmx:libmx.dll
 0000:00000000       .debug$S                   0000000180000000     libmx:libmx.dll
 0000:00000000       .debug$S                   0000000180000000     libmx:libmx.dll
 0000:00000000       .debug$S                   0000000180000000     libmx:libmx.dll
 0000:00000000       .debug$S                   0000000180000000     libmx:libmx.dll
 0000:00000000       .debug$S                   0000000180000000     libmx:libmx.dll
 0000:00000000       .debug$S                   0000000180000000     libmx:libmx.dll
 0000:00000000       .debug$S                   0000000180000000     libmx:libmx.dll
 0000:00000000       .debug$S                   0000000180000000     libmx:libmx.dll
 0000:00000000       .debug$S                   0000000180000000     libmx:libmx.dll
 0000:00000000       .debug$S                   0000000180000000     libmx:libmx.dll
 0000:00000000       .debug$S                   0000000180000000     libut:libut.dll
 0000:00000000       .debug$S                   0000000180000000     libut:libut.dll
 0000:00000000       .debug$S                   0000000180000000     sf_runtime:sf_runtime.dll
 0000:00000000       .debug$S                   0000000180000000     sf_runtime:sf_runtime.dll
 0000:00000000       .debug$S                   0000000180000000     sf_runtime:sf_runtime.dll
 0000:00000000       .debug$S                   0000000180000000     sf_runtime:sf_runtime.dll
 0000:00000000       .debug$S                   0000000180000000     sf_runtime:sf_runtime.dll
 0000:00000000       .debug$S                   0000000180000000     sf_runtime:sf_runtime.dll
 0000:00000000       .debug$S                   0000000180000000     sf_runtime:sf_runtime.dll
 0000:00000000       .debug$S                   0000000180000000     sf_runtime:sf_runtime.dll
 0000:00000000       .debug$S                   0000000180000000     sf_runtime:sf_runtime.dll
 0000:00000000       .debug$S                   0000000180000000     sf_runtime:sf_runtime.dll
 0000:00000000       .debug$S                   0000000180000000     sf_runtime:sf_runtime.dll
 0000:00000000       .debug$S                   0000000180000000     sf_runtime:sf_runtime.dll
 0000:00000000       .debug$S                   0000000180000000     sf_runtime:sf_runtime.dll
 0000:00000000       .debug$S                   0000000180000000     sf_runtime:sf_runtime.dll
 0000:00000000       .debug$S                   0000000180000000     sf_runtime:sf_runtime.dll
 0000:00000000       .debug$S                   0000000180000000     sf_runtime:sf_runtime.dll
 0000:00000000       .debug$S                   0000000180000000     sf_runtime:sf_runtime.dll
 0000:00000000       .debug$S                   0000000180000000     sf_runtime:sf_runtime.dll
 0000:00000000       .debug$S                   0000000180000000     sf_runtime:sf_runtime.dll
 0000:00000000       .debug$S                   0000000180000000     sf_runtime:sf_runtime.dll
 0000:00000000       .debug$S                   0000000180000000     sf_runtime:sf_runtime.dll
 0000:00000000       .debug$S                   0000000180000000     sf_runtime:sf_runtime.dll
 0000:00000000       .debug$S                   0000000180000000     sf_runtime:sf_runtime.dll
 0000:00000000       .debug$S                   0000000180000000     sf_runtime:sf_runtime.dll
 0000:00000000       .debug$S                   0000000180000000     sf_runtime:sf_runtime.dll
 0000:00000000       .debug$S                   0000000180000000     sf_runtime:sf_runtime.dll
 0000:00000000       .debug$S                   0000000180000000     sf_runtime:sf_runtime.dll
 0000:00000000       .debug$S                   0000000180000000     sf_runtime:sf_runtime.dll
 0000:00000000       .debug$S                   0000000180000000     sf_runtime:sf_runtime.dll
 0000:00000000       .debug$S                   0000000180000000     sf_runtime:sf_runtime.dll
 0000:00000000       .debug$S                   0000000180000000     sf_runtime:sf_runtime.dll
 0000:00000000       .debug$S                   0000000180000000     sf_runtime:sf_runtime.dll
 0000:00000000       .debug$S                   0000000180000000     sf_runtime:sf_runtime.dll
 0000:00000000       .debug$S                   0000000180000000     sf_runtime:sf_runtime.dll
 0000:00000000       .debug$S                   0000000180000000     sf_runtime:sf_runtime.dll
 0000:00000000       .debug$S                   0000000180000000     sf_runtime:sf_runtime.dll
 0000:00000000       .debug$S                   0000000180000000     sf_runtime:sf_runtime.dll
 0000:00000000       _volmd                     0000000180000000     MSVCRT:cpu_disp.obj
 0002:fffe9000       __guard_ehcont_?dllmain_dispatch@@YAHQEAUHINSTANCE__@@KQEAX@Z 0000000180000000     MSVCRT:dll_dllmain.obj
 0002:fffe9000       __guard_fids_?dllmain_dispatch@@YAHQEAUHINSTANCE__@@KQEAX@Z 0000000180000000     MSVCRT:dll_dllmain.obj
 0000:00000000       _volmd                     0000000180000000     MSVCRT:gs_report.obj
 0000:00000000       _volmd                     0000000180000000     MSVCRT:gs_report.obj
 0000:00000000       _volmd                     0000000180000000     MSVCRT:gs_report.obj
 0002:fffe9000       __guard_fids__             0000000180000000     MSVCRT:guard_support.obj
 0002:fffe9000       __guard_fids__             0000000180000000     MSVCRT:guard_support.obj
 0002:fffe9000       __guard_fids__guard_icall_checks_enforced 0000000180000000     MSVCRT:guard_support.obj
 0000:00000000       _volmd                     0000000180000000     MSVCRT:guard_support.obj
 0000:00000000       _volmd                     0000000180000000     MSVCRT:guard_support.obj
 0000:00000000       _volmd                     0000000180000000     MSVCRT:guard_support.obj
 0000:00000000       _volmd                     0000000180000000     MSVCRT:guard_support.obj
 0000:00000000       _volmd                     0000000180000000     MSVCRT:guard_support.obj
 0000:00000000       _volmd                     0000000180000000     MSVCRT:guard_support.obj
 0002:fffe9000       __guard_ehcont___scrt_is_nonwritable_in_current_image 0000000180000000     MSVCRT:utility.obj
 0000:00000000       _volmd                     0000000180000000     MSVCRT:utility.obj
 0000:00000000       _volmd                     0000000180000000     MSVCRT:utility.obj
 0000:00000000       _volmd                     0000000180000000     MSVCRT:utility.obj
 0002:fffe9000       __guard_fids___scrt_set_unhandled_exception_filter 0000000180000000     MSVCRT:utility_desktop.obj
 0000:00000000       _volmd                     0000000180000000     MSVCRT:utility_desktop.obj
 0002:fffe9000       __guard_fids__             0000000180000000     vcruntime:softmemtag.obj
 0000:00000000       .debug$S                   0000000180000000     vcruntime:VCRUNTIME140.dll
 0000:00000000       .debug$S                   0000000180000000     vcruntime:VCRUNTIME140.dll
 0000:00000000       .debug$S                   0000000180000000     vcruntime:VCRUNTIME140.dll
 0000:00000000       .debug$S                   0000000180000000     vcruntime:VCRUNTIME140.dll
 0000:00000000       .debug$S                   0000000180000000     vcruntime:VCRUNTIME140.dll
 0000:00000000       .debug$S                   0000000180000000     vcruntime:VCRUNTIME140.dll
 0000:00000010       _volmd                     0000000180000010     c11_flightControlSystem.obj
 0000:00000010       _volmd                     0000000180000010     c4_flightControlSystem.obj
 0000:00000010       _volmd                     0000000180000010     flightControlSystem_sfun.obj
 0000:00000010       _volmd                     0000000180000010     flightControlSystem_sfun_registry.obj
 0000:00000020       _volmd                     0000000180000020     c11_flightControlSystem.obj
 0000:00000020       _volmd                     0000000180000020     c4_flightControlSystem.obj
 0000:00000020       _volmd                     0000000180000020     flightControlSystem_sfun.obj
 0000:00000020       _volmd                     0000000180000020     flightControlSystem_sfun_registry.obj
 0000:00000030       _volmd                     0000000180000030     c11_flightControlSystem.obj
 0000:00000030       _volmd                     0000000180000030     c4_flightControlSystem.obj
 0000:00000030       _volmd                     0000000180000030     flightControlSystem_sfun.obj
 0000:00000030       _volmd                     0000000180000030     flightControlSystem_sfun_registry.obj
 0000:00000040       _volmd                     0000000180000040     c11_flightControlSystem.obj
 0000:00000040       _volmd                     0000000180000040     flightControlSystem_sfun.obj
 0000:00000040       _volmd                     0000000180000040     flightControlSystem_sfun_registry.obj
 0000:00000050       _volmd                     0000000180000050     flightControlSystem_sfun.obj
 0000:00000050       _volmd                     0000000180000050     flightControlSystem_sfun_registry.obj
 0000:00000060       _volmd                     0000000180000060     flightControlSystem_sfun_registry.obj
 0000:00000070       _volmd                     0000000180000070     flightControlSystem_sfun_registry.obj
 0000:00000080       _volmd                     0000000180000080     flightControlSystem_sfun_registry.obj
 0000:00000090       _volmd                     0000000180000090     flightControlSystem_sfun_registry.obj
 0000:000000a0       _volmd                     00000001800000a0     flightControlSystem_sfun_registry.obj
 0000:000000b0       _volmd                     00000001800000b0     flightControlSystem_sfun_registry.obj
 0000:000000c0       _volmd                     00000001800000c0     flightControlSystem_sfun_registry.obj
 0000:000000d0       _volmd                     00000001800000d0     flightControlSystem_sfun_registry.obj
 0000:000000e0       _volmd                     00000001800000e0     flightControlSystem_sfun_registry.obj
 0000:000000f0       _volmd                     00000001800000f0     flightControlSystem_sfun_registry.obj
 0000:00000100       _volmd                     0000000180000100     flightControlSystem_sfun_registry.obj
 0001:000012b0       initialize_c4_flightControlSystem 00000001800022b0 f   c4_flightControlSystem.obj
 0001:00001350       initialize_params_c4_flightControlSystem 0000000180002350 f   c4_flightControlSystem.obj
 0001:00001360       mdl_start_c4_flightControlSystem 0000000180002360 f   c4_flightControlSystem.obj
 0001:00001390       mdl_terminate_c4_flightControlSystem 0000000180002390 f   c4_flightControlSystem.obj
 0001:000013a0       mdl_setup_runtime_resources_c4_flightControlSystem 00000001800023a0 f   c4_flightControlSystem.obj
 0001:00001580       mdl_cleanup_runtime_resources_c4_flightControlSystem 0000000180002580 f   c4_flightControlSystem.obj
 0001:000015b0       enable_c4_flightControlSystem 00000001800025b0 f   c4_flightControlSystem.obj
 0001:000015e0       disable_c4_flightControlSystem 00000001800025e0 f   c4_flightControlSystem.obj
 0001:00001610       sf_gateway_c4_flightControlSystem 0000000180002610 f   c4_flightControlSystem.obj
 0001:00003cf0       get_sim_state_c4_flightControlSystem 0000000180004cf0 f   c4_flightControlSystem.obj
 0001:00003de0       set_sim_state_c4_flightControlSystem 0000000180004de0 f   c4_flightControlSystem.obj
 0001:00003ec0       c4_emlrt_marshallIn        0000000180004ec0 f   c4_flightControlSystem.obj
 0001:00003f30       c4_b_emlrt_marshallIn      0000000180004f30 f   c4_flightControlSystem.obj
 0001:00004030       init_dsm_address_info      0000000180005030 f   c4_flightControlSystem.obj
 0001:00004040       init_simulink_io_address   0000000180005040 f   c4_flightControlSystem.obj
 0001:000042f0       sf_get_sim_state_info_c4_flightControlSystem 00000001800052f0 f   c4_flightControlSystem.obj
 0001:000043b0       sf_opaque_initialize_c4_flightControlSystem 00000001800053b0 f   c4_flightControlSystem.obj
 0001:000043e0       sf_opaque_enable_c4_flightControlSystem 00000001800053e0 f   c4_flightControlSystem.obj
 0001:00004400       sf_opaque_disable_c4_flightControlSystem 0000000180005400 f   c4_flightControlSystem.obj
 0001:00004420       sf_opaque_gateway_c4_flightControlSystem 0000000180005420 f   c4_flightControlSystem.obj
 0001:00004440       sf_opaque_get_sim_state_c4_flightControlSystem 0000000180005440 f   c4_flightControlSystem.obj
 0001:00004470       sf_opaque_set_sim_state_c4_flightControlSystem 0000000180005470 f   c4_flightControlSystem.obj
 0001:000044a0       sf_opaque_cleanup_runtime_resources_c4_flightControlSystem 00000001800054a0 f   c4_flightControlSystem.obj
 0001:00004540       sf_opaque_mdl_start_c4_flightControlSystem 0000000180005540 f   c4_flightControlSystem.obj
 0001:00004580       sf_opaque_mdl_terminate_c4_flightControlSystem 0000000180005580 f   c4_flightControlSystem.obj
 0001:000045a0       mdlProcessParameters_c4_flightControlSystem 00000001800055a0 f   c4_flightControlSystem.obj
 0001:000047a0       mdlSetWorkWidths_c4_flightControlSystem 00000001800057a0 f   c4_flightControlSystem.obj
 0001:00004830       mdlRTW_c4_flightControlSystem 0000000180005830 f   c4_flightControlSystem.obj
 0001:00004870       mdlSetupRuntimeResources_c4_flightControlSystem 0000000180005870 f   c4_flightControlSystem.obj
 0001:00004c90       initialize_c11_flightControlSystem 0000000180005c90 f   c11_flightControlSystem.obj
 0001:00004d30       initialize_params_c11_flightControlSystem 0000000180005d30 f   c11_flightControlSystem.obj
 0001:00004d40       mdl_start_c11_flightControlSystem 0000000180005d40 f   c11_flightControlSystem.obj
 0001:00004d70       mdl_terminate_c11_flightControlSystem 0000000180005d70 f   c11_flightControlSystem.obj
 0001:00004d80       mdl_setup_runtime_resources_c11_flightControlSystem 0000000180005d80 f   c11_flightControlSystem.obj
 0001:00005080       mdl_cleanup_runtime_resources_c11_flightControlSystem 0000000180006080 f   c11_flightControlSystem.obj
 0001:000050b0       enable_c11_flightControlSystem 00000001800060b0 f   c11_flightControlSystem.obj
 0001:000050e0       disable_c11_flightControlSystem 00000001800060e0 f   c11_flightControlSystem.obj
 0001:00005110       sf_gateway_c11_flightControlSystem 0000000180006110 f   c11_flightControlSystem.obj
 0001:00007800       get_sim_state_c11_flightControlSystem 0000000180008800 f   c11_flightControlSystem.obj
 0001:00007cc0       set_sim_state_c11_flightControlSystem 0000000180008cc0 f   c11_flightControlSystem.obj
 0001:00008110       c11_emlrt_marshallIn       0000000180009110 f   c11_flightControlSystem.obj
 0001:00008180       c11_b_emlrt_marshallIn     0000000180009180 f   c11_flightControlSystem.obj
 0001:00008280       c11__s32_add__             0000000180009280 f   c11_flightControlSystem.obj
 0001:000082f0       c11__s32_minus__           00000001800092f0 f   c11_flightControlSystem.obj
 0001:00008360       init_dsm_address_info      0000000180009360 f   c11_flightControlSystem.obj
 0001:00008370       init_simulink_io_address   0000000180009370 f   c11_flightControlSystem.obj
 0001:000086e0       sf_get_sim_state_info_c11_flightControlSystem 00000001800096e0 f   c11_flightControlSystem.obj
 0001:000087a0       sf_opaque_initialize_c11_flightControlSystem 00000001800097a0 f   c11_flightControlSystem.obj
 0001:000087d0       sf_opaque_enable_c11_flightControlSystem 00000001800097d0 f   c11_flightControlSystem.obj
 0001:000087f0       sf_opaque_disable_c11_flightControlSystem 00000001800097f0 f   c11_flightControlSystem.obj
 0001:00008810       sf_opaque_gateway_c11_flightControlSystem 0000000180009810 f   c11_flightControlSystem.obj
 0001:00008830       sf_opaque_get_sim_state_c11_flightControlSystem 0000000180009830 f   c11_flightControlSystem.obj
 0001:00008860       sf_opaque_set_sim_state_c11_flightControlSystem 0000000180009860 f   c11_flightControlSystem.obj
 0001:00008890       sf_opaque_cleanup_runtime_resources_c11_flightControlSystem 0000000180009890 f   c11_flightControlSystem.obj
 0001:00008930       sf_opaque_mdl_start_c11_flightControlSystem 0000000180009930 f   c11_flightControlSystem.obj
 0001:00008970       sf_opaque_mdl_terminate_c11_flightControlSystem 0000000180009970 f   c11_flightControlSystem.obj
 0001:00008990       mdlProcessParameters_c11_flightControlSystem 0000000180009990 f   c11_flightControlSystem.obj
 0001:00008ba0       mdlSetWorkWidths_c11_flightControlSystem 0000000180009ba0 f   c11_flightControlSystem.obj
 0001:00008c30       mdlRTW_c11_flightControlSystem 0000000180009c30 f   c11_flightControlSystem.obj
 0001:00008c70       mdlSetupRuntimeResources_c11_flightControlSystem 0000000180009c70 f   c11_flightControlSystem.obj
 0001:0000b6b4       $LN197                     000000018000c6b4     flightControlSystem_sfun_registry.obj
 0001:0000c514       $LN22                      000000018000d514     flightControlSystem_sfun_registry.obj
 0001:0000cc14       $LN26                      000000018000dc14     flightControlSystem_sfun_registry.obj
 0001:0000d2f4       $LN24                      000000018000e2f4     flightControlSystem_sfun_registry.obj
 0001:0000e02c       $LN30                      000000018000f02c     flightControlSystem_sfun_registry.obj
 0001:00011640       ProcessMexSfunctionCmdLineCall 0000000180012640 f   flightControlSystem_sfun_registry.obj
 0001:000118f0       mdlSetWorkWidths           00000001800128f0 f   flightControlSystem_sfun_registry.obj
 0001:00011940       mdlProcessParameters       0000000180012940 f   flightControlSystem_sfun_registry.obj
 0001:00011970       mdl_setup_runtime_resources_processing 0000000180012970 f   flightControlSystem_sfun_registry.obj
 0001:000119d0       mdlSetupRuntimeResources   00000001800129d0 f   flightControlSystem_sfun_registry.obj
 0001:00011a00       mdl_cleanup_runtime_resources_processing 0000000180012a00 f   flightControlSystem_sfun_registry.obj
 0001:00011ac0       mdlCleanupRuntimeResources 0000000180012ac0 f   flightControlSystem_sfun_registry.obj
 0001:00011af0       mdl_start_processing       0000000180012af0 f   flightControlSystem_sfun_registry.obj
 0001:00011b30       mdlStart                   0000000180012b30 f   flightControlSystem_sfun_registry.obj
 0001:00011b60       mdl_terminate_processing   0000000180012b60 f   flightControlSystem_sfun_registry.obj
 0001:00011ba0       mdlTerminate               0000000180012ba0 f   flightControlSystem_sfun_registry.obj
 0001:00011bd0       mdlInitializeSizes         0000000180012bd0 f   flightControlSystem_sfun_registry.obj
 0001:00011c00       mdlInitializeSampleTimes   0000000180012c00 f   flightControlSystem_sfun_registry.obj
 0001:00011c30       mdl_outputs_continuous_legacy 0000000180012c30 f   flightControlSystem_sfun_registry.obj
 0001:00011d30       mdl_outputs_processing     0000000180012d30 f   flightControlSystem_sfun_registry.obj
 0001:00011e90       mdl_zeroCrossings_processing 0000000180012e90 f   flightControlSystem_sfun_registry.obj
 0001:00011ed0       mdlZeroCrossings           0000000180012ed0 f   flightControlSystem_sfun_registry.obj
 0001:00011f00       mdl_derivatives_processing 0000000180012f00 f   flightControlSystem_sfun_registry.obj
 0001:00011f50       mdlDerivatives             0000000180012f50 f   flightControlSystem_sfun_registry.obj
 0001:00011f80       mdl_initialize_conditions_processing 0000000180012f80 f   flightControlSystem_sfun_registry.obj
 0001:00011fd0       mdlInitializeConditions    0000000180012fd0 f   flightControlSystem_sfun_registry.obj
 0001:00012000       mdl_ext_mode_exec_processing 0000000180013000 f   flightControlSystem_sfun_registry.obj
 0001:00012040       mdlExtModeExec             0000000180013040 f   flightControlSystem_sfun_registry.obj
 0001:00012070       mdlRTW                     0000000180013070 f   flightControlSystem_sfun_registry.obj
 0001:000120b0       mdl_enable_processing      00000001800130b0 f   flightControlSystem_sfun_registry.obj
 0001:000120f0       mdlEnable                  00000001800130f0 f   flightControlSystem_sfun_registry.obj
 0001:00012120       mdl_disable_processing     0000000180013120 f   flightControlSystem_sfun_registry.obj
 0001:00012160       mdlDisable                 0000000180013160 f   flightControlSystem_sfun_registry.obj
 0001:00012190       mdlOutputs                 0000000180013190 f   flightControlSystem_sfun_registry.obj
 0001:000121c0       mdl_update_processing      00000001800131c0 f   flightControlSystem_sfun_registry.obj
 0001:00012210       mdlUpdate                  0000000180013210 f   flightControlSystem_sfun_registry.obj
 0001:00012400       mdlGetTimeOfNextVarHit     0000000180013400 f   flightControlSystem_sfun_registry.obj
 0001:00012450       _RegNumInputPortsCB        0000000180013450 f   flightControlSystem_sfun_registry.obj
 0001:000124d0       _RegNumOutputPortsCB       00000001800134d0 f   flightControlSystem_sfun_registry.obj
 0001:00012550       _CreateSimStruct           0000000180013550 f   flightControlSystem_sfun_registry.obj
 0001:00012780       _ProcessMexSfunctionCmdLineCall 0000000180013780 f   flightControlSystem_sfun_registry.obj
 0001:000131f0       ReportIndexOutOfBoundsError 00000001800141f0 f   flightControlSystem_sfun_registry.obj
 0001:000141b0       capture_current_context    00000001800151b0 f   MSVCRT:gs_report.obj
 0001:00014220       capture_previous_context   0000000180015220 f   MSVCRT:gs_report.obj
 0001:00014310       $$000000                   0000000180015310     MSVCRT:amdsecgs.obj
 0001:00014340       $$000000                   0000000180015340     MSVCRT:chkstk.obj
 0001:000143a0       ?dllmain_crt_dispatch@@YAHQEAUHINSTANCE__@@KQEAX@Z 00000001800153a0 f   MSVCRT:dll_dllmain.obj
 0001:000143f0       ?dllmain_crt_process_attach@@YAHQEAUHINSTANCE__@@QEAX@Z 00000001800153f0 f   MSVCRT:dll_dllmain.obj
 0001:00014508       ?dllmain_crt_process_detach@@YAH_N@Z 0000000180015508 f   MSVCRT:dll_dllmain.obj
 0001:0001458c       ?dllmain_dispatch@@YAHQEAUHINSTANCE__@@KQEAX@Z 000000018001558c f   MSVCRT:dll_dllmain.obj
 0001:000146c0       ?dllmain_raw@@YAHQEAUHINSTANCE__@@KQEAX@Z 00000001800156c0 f   MSVCRT:dll_dllmain.obj
 0001:00014724       __get_entropy              0000000180015724 f   MSVCRT:gs_support.obj
 0001:000148b4       ?find_pe_section@@YAPEAU_IMAGE_SECTION_HEADER@@QEAE_K@Z 00000001800158b4 f   MSVCRT:utility.obj
 0001:00014908       ?is_potentially_valid_image_base@@YA_NQEAX@Z 0000000180015908 f   MSVCRT:utility.obj
 0001:00015050       __castguard_check_failure_os_handled_wrapper 0000000180016050 f   MSVCRT:guard_support.obj
 0001:00015070       __castguard_compat_check   0000000180016070 f   MSVCRT:guard_support.obj
 0001:00015158       __castguard_slow_path_compat_check 0000000180016158 f   MSVCRT:guard_support.obj
 0001:00015460       $$000000                   0000000180016460     MSVCRT:guard_dispatch.obj
 0001:00015480       $$000000                   0000000180016480     MSVCRT:guard_xfg_dispatch.obj
 0001:00015496       ?fin$0@?0??dllmain_crt_process_attach@@YAHQEAUHINSTANCE__@@QEAX@Z@4HA 0000000180016496 f   MSVCRT:dll_dllmain.obj
 0001:000154ad       ?fin$0@?0??dllmain_crt_process_detach@@YAH_N@Z@4HA 00000001800164ad f   MSVCRT:dll_dllmain.obj
 0001:000154c6       ?fin$1@?0??dllmain_crt_process_detach@@YAH_N@Z@4HA 00000001800164c6 f   MSVCRT:dll_dllmain.obj
 0001:000154da       ?filt$0@?0??dllmain_dispatch@@YAHQEAUHINSTANCE__@@KQEAX@Z@4HA 00000001800164da f   MSVCRT:dll_dllmain.obj
 0001:00015510       __scrt_is_nonwritable_in_current_image$filt$0 0000000180016510 f   MSVCRT:utility.obj
 0002:00000570       ?c4_decisionTxtEndIdx@?1??mdl_setup_runtime_resources_c4_flightControlSystem@@9@9 0000000180017570     c4_flightControlSystem.obj
 0002:00000574       ?c4_decisionTxtStartIdx@?1??mdl_setup_runtime_resources_c4_flightControlSystem@@9@9 0000000180017574     c4_flightControlSystem.obj
 0002:000005d0       ?c11_decisionTxtEndIdx@?1??mdl_setup_runtime_resources_c11_flightControlSystem@@9@9 00000001800175d0     c11_flightControlSystem.obj
 0002:000005d4       ?c11_decisionTxtStartIdx@?1??mdl_setup_runtime_resources_c11_flightControlSystem@@9@9 00000001800175d4     c11_flightControlSystem.obj
 0002:00000640       GS_ExceptionPointers       0000000180017640     MSVCRT:gs_report.obj
 0002:00000d38       $unwind$load_flightControlSystem_optimization_info 0000000180017d38     flightControlSystem_sfun.obj
 0002:00000d40       $unwind$unload_flightControlSystem_optimization_info 0000000180017d40     flightControlSystem_sfun.obj
 0002:00000d48       $unwind$sf_flightControlSystem_method_dispatcher 0000000180017d48     flightControlSystem_sfun.obj
 0002:00000d50       $unwind$sf_flightControlSystem_process_check_sum_call 0000000180017d50     flightControlSystem_sfun.obj
 0002:00000d60       $unwind$sf_flightControlSystem_get_eml_resolved_functions_info 0000000180017d60     flightControlSystem_sfun.obj
 0002:00000d70       $unwind$sf_flightControlSystem_third_party_uses_info 0000000180017d70     flightControlSystem_sfun.obj
 0002:00000d80       $unwind$sf_flightControlSystem_jit_fallback_info 0000000180017d80     flightControlSystem_sfun.obj
 0002:00000d90       $unwind$sf_flightControlSystem_get_post_codegen_info 0000000180017d90     flightControlSystem_sfun.obj
 0002:00000da0       $unwind$sf_flightControlSystem_updateBuildInfo_args_info 0000000180017da0     flightControlSystem_sfun.obj
 0002:00000db0       $unwind$sf_c4_flightControlSystem_get_eml_resolved_functions_info 0000000180017db0     c4_flightControlSystem.obj
 0002:00000db8       $unwind$sf_c4_flightControlSystem_get_check_sum 0000000180017db8     c4_flightControlSystem.obj
 0002:00000dc0       $unwind$c4_flightControlSystem_method_dispatcher 0000000180017dc0     c4_flightControlSystem.obj
 0002:00000dc8       $unwind$initialize_c4_flightControlSystem 0000000180017dc8     c4_flightControlSystem.obj
 0002:00000dd0       $unwind$mdl_start_c4_flightControlSystem 0000000180017dd0     c4_flightControlSystem.obj
 0002:00000dd8       $unwind$mdl_setup_runtime_resources_c4_flightControlSystem 0000000180017dd8     c4_flightControlSystem.obj
 0002:00000de0       $unwind$mdl_cleanup_runtime_resources_c4_flightControlSystem 0000000180017de0     c4_flightControlSystem.obj
 0002:00000de8       $unwind$enable_c4_flightControlSystem 0000000180017de8     c4_flightControlSystem.obj
 0002:00000df0       $unwind$disable_c4_flightControlSystem 0000000180017df0     c4_flightControlSystem.obj
 0002:00000df8       $unwind$sf_gateway_c4_flightControlSystem 0000000180017df8     c4_flightControlSystem.obj
 0002:00000e08       $unwind$get_sim_state_c4_flightControlSystem 0000000180017e08     c4_flightControlSystem.obj
 0002:00000e10       $unwind$set_sim_state_c4_flightControlSystem 0000000180017e10     c4_flightControlSystem.obj
 0002:00000e18       $unwind$c4_emlrt_marshallIn 0000000180017e18     c4_flightControlSystem.obj
 0002:00000e20       $unwind$c4_b_emlrt_marshallIn 0000000180017e20     c4_flightControlSystem.obj
 0002:00000e30       $unwind$init_simulink_io_address 0000000180017e30     c4_flightControlSystem.obj
 0002:00000e38       $unwind$sf_c4_flightControlSystem_third_party_uses_info 0000000180017e38     c4_flightControlSystem.obj
 0002:00000e40       $unwind$sf_c4_flightControlSystem_jit_fallback_info 0000000180017e40     c4_flightControlSystem.obj
 0002:00000e50       $unwind$sf_c4_flightControlSystem_updateBuildInfo_args_info 0000000180017e50     c4_flightControlSystem.obj
 0002:00000e58       $unwind$sf_get_sim_state_info_c4_flightControlSystem 0000000180017e58     c4_flightControlSystem.obj
 0002:00000e60       $unwind$sf_opaque_initialize_c4_flightControlSystem 0000000180017e60     c4_flightControlSystem.obj
 0002:00000e68       $unwind$sf_opaque_enable_c4_flightControlSystem 0000000180017e68     c4_flightControlSystem.obj
 0002:00000e70       $unwind$sf_opaque_disable_c4_flightControlSystem 0000000180017e70     c4_flightControlSystem.obj
 0002:00000e78       $unwind$sf_opaque_gateway_c4_flightControlSystem 0000000180017e78     c4_flightControlSystem.obj
 0002:00000e80       $unwind$sf_opaque_get_sim_state_c4_flightControlSystem 0000000180017e80     c4_flightControlSystem.obj
 0002:00000e88       $unwind$sf_opaque_set_sim_state_c4_flightControlSystem 0000000180017e88     c4_flightControlSystem.obj
 0002:00000e90       $unwind$sf_opaque_cleanup_runtime_resources_c4_flightControlSystem 0000000180017e90     c4_flightControlSystem.obj
 0002:00000e98       $unwind$sf_opaque_mdl_start_c4_flightControlSystem 0000000180017e98     c4_flightControlSystem.obj
 0002:00000ea0       $unwind$sf_opaque_mdl_terminate_c4_flightControlSystem 0000000180017ea0     c4_flightControlSystem.obj
 0002:00000ea8       $unwind$mdlProcessParameters_c4_flightControlSystem 0000000180017ea8     c4_flightControlSystem.obj
 0002:00000eb0       $unwind$sf_c4_flightControlSystem_get_post_codegen_info 0000000180017eb0     c4_flightControlSystem.obj
 0002:00000ec0       $unwind$mdlSetWorkWidths_c4_flightControlSystem 0000000180017ec0     c4_flightControlSystem.obj
 0002:00000ec8       $unwind$mdlRTW_c4_flightControlSystem 0000000180017ec8     c4_flightControlSystem.obj
 0002:00000ed0       $unwind$mdlSetupRuntimeResources_c4_flightControlSystem 0000000180017ed0     c4_flightControlSystem.obj
 0002:00000ed8       $unwind$sf_c11_flightControlSystem_get_eml_resolved_functions_info 0000000180017ed8     c11_flightControlSystem.obj
 0002:00000ee0       $unwind$sf_c11_flightControlSystem_get_check_sum 0000000180017ee0     c11_flightControlSystem.obj
 0002:00000ee8       $unwind$c11_flightControlSystem_method_dispatcher 0000000180017ee8     c11_flightControlSystem.obj
 0002:00000ef0       $unwind$initialize_c11_flightControlSystem 0000000180017ef0     c11_flightControlSystem.obj
 0002:00000ef8       $unwind$mdl_start_c11_flightControlSystem 0000000180017ef8     c11_flightControlSystem.obj
 0002:00000f00       $unwind$mdl_setup_runtime_resources_c11_flightControlSystem 0000000180017f00     c11_flightControlSystem.obj
 0002:00000f08       $unwind$mdl_cleanup_runtime_resources_c11_flightControlSystem 0000000180017f08     c11_flightControlSystem.obj
 0002:00000f10       $unwind$enable_c11_flightControlSystem 0000000180017f10     c11_flightControlSystem.obj
 0002:00000f18       $unwind$disable_c11_flightControlSystem 0000000180017f18     c11_flightControlSystem.obj
 0002:00000f20       $unwind$sf_gateway_c11_flightControlSystem 0000000180017f20     c11_flightControlSystem.obj
 0002:00000f30       $unwind$get_sim_state_c11_flightControlSystem 0000000180017f30     c11_flightControlSystem.obj
 0002:00000f38       $unwind$set_sim_state_c11_flightControlSystem 0000000180017f38     c11_flightControlSystem.obj
 0002:00000f48       $unwind$c11_emlrt_marshallIn 0000000180017f48     c11_flightControlSystem.obj
 0002:00000f50       $unwind$c11_b_emlrt_marshallIn 0000000180017f50     c11_flightControlSystem.obj
 0002:00000f60       $unwind$c11__s32_add__     0000000180017f60     c11_flightControlSystem.obj
 0002:00000f68       $unwind$c11__s32_minus__   0000000180017f68     c11_flightControlSystem.obj
 0002:00000f70       $unwind$init_simulink_io_address 0000000180017f70     c11_flightControlSystem.obj
 0002:00000f78       $unwind$sf_c11_flightControlSystem_third_party_uses_info 0000000180017f78     c11_flightControlSystem.obj
 0002:00000f80       $unwind$sf_c11_flightControlSystem_jit_fallback_info 0000000180017f80     c11_flightControlSystem.obj
 0002:00000f90       $unwind$sf_c11_flightControlSystem_updateBuildInfo_args_info 0000000180017f90     c11_flightControlSystem.obj
 0002:00000f98       $unwind$sf_get_sim_state_info_c11_flightControlSystem 0000000180017f98     c11_flightControlSystem.obj
 0002:00000fa0       $unwind$sf_opaque_initialize_c11_flightControlSystem 0000000180017fa0     c11_flightControlSystem.obj
 0002:00000fa8       $unwind$sf_opaque_enable_c11_flightControlSystem 0000000180017fa8     c11_flightControlSystem.obj
 0002:00000fb0       $unwind$sf_opaque_disable_c11_flightControlSystem 0000000180017fb0     c11_flightControlSystem.obj
 0002:00000fb8       $unwind$sf_opaque_gateway_c11_flightControlSystem 0000000180017fb8     c11_flightControlSystem.obj
 0002:00000fc0       $unwind$sf_opaque_get_sim_state_c11_flightControlSystem 0000000180017fc0     c11_flightControlSystem.obj
 0002:00000fc8       $unwind$sf_opaque_set_sim_state_c11_flightControlSystem 0000000180017fc8     c11_flightControlSystem.obj
 0002:00000fd0       $unwind$sf_opaque_cleanup_runtime_resources_c11_flightControlSystem 0000000180017fd0     c11_flightControlSystem.obj
 0002:00000fd8       $unwind$sf_opaque_mdl_start_c11_flightControlSystem 0000000180017fd8     c11_flightControlSystem.obj
 0002:00000fe0       $unwind$sf_opaque_mdl_terminate_c11_flightControlSystem 0000000180017fe0     c11_flightControlSystem.obj
 0002:00000fe8       $unwind$mdlProcessParameters_c11_flightControlSystem 0000000180017fe8     c11_flightControlSystem.obj
 0002:00000ff0       $unwind$sf_c11_flightControlSystem_get_post_codegen_info 0000000180017ff0     c11_flightControlSystem.obj
 0002:00001000       $unwind$mdlSetWorkWidths_c11_flightControlSystem 0000000180018000     c11_flightControlSystem.obj
 0002:00001008       $unwind$mdlRTW_c11_flightControlSystem 0000000180018008     c11_flightControlSystem.obj
 0002:00001010       $unwind$mdlSetupRuntimeResources_c11_flightControlSystem 0000000180018010     c11_flightControlSystem.obj
 0002:00001018       $unwind$_vsnprintf_l       0000000180018018     flightControlSystem_sfun_registry.obj
 0002:00001020       $unwind$_vsprintf_l        0000000180018020     flightControlSystem_sfun_registry.obj
 0002:00001028       $unwind$sprintf            0000000180018028     flightControlSystem_sfun_registry.obj
 0002:00001030       $unwind$mexFunction        0000000180018030     flightControlSystem_sfun_registry.obj
 0002:00001040       $unwind$_ssSetInputPortDirectFeedThroughFcn 0000000180018040     flightControlSystem_sfun_registry.obj
 0002:00001050       $unwind$_ssSetRWorkValueFcn 0000000180018050     flightControlSystem_sfun_registry.obj
 0002:00001058       $unwind$_ssGetRWorkValueFcn 0000000180018058     flightControlSystem_sfun_registry.obj
 0002:00001060       $unwind$_ssSetIWorkValueFcn 0000000180018060     flightControlSystem_sfun_registry.obj
 0002:00001068       $unwind$_ssGetIWorkValueFcn 0000000180018068     flightControlSystem_sfun_registry.obj
 0002:00001070       $unwind$_ssSetPWorkValueFcn 0000000180018070     flightControlSystem_sfun_registry.obj
 0002:00001078       $unwind$_ssGetPWorkValueFcn 0000000180018078     flightControlSystem_sfun_registry.obj
 0002:00001080       $unwind$_ssGetInputPortSignalFcn 0000000180018080     flightControlSystem_sfun_registry.obj
 0002:00001090       $unwind$_ssGetInputPortBufferDstPortFcn 0000000180018090     flightControlSystem_sfun_registry.obj
 0002:00001098       $unwind$_ssGetInputPortSignalPtrsFcn 0000000180018098     flightControlSystem_sfun_registry.obj
 0002:000010a8       $unwind$ssGetParameterTuningCompliance 00000001800180a8     flightControlSystem_sfun_registry.obj
 0002:000010b0       $unwind$_ssReadInputStringFcn 00000001800180b0     flightControlSystem_sfun_registry.obj
 0002:000010b8       $unwind$ssGetDTypeIdFromMxArray 00000001800180b8     flightControlSystem_sfun_registry.obj
 0002:000010c0       $unwind$ssWriteRTWMx2dMatParam 00000001800180c0     flightControlSystem_sfun_registry.obj
 0002:000010c8       $unwind$ssWriteRTWMxVectParam 00000001800180c8     flightControlSystem_sfun_registry.obj
 0002:000010d0       $unwind$ssWriteRTWParameters 00000001800180d0     flightControlSystem_sfun_registry.obj
 0002:000010d8       $unwind$ssWriteRTWParamSettings 00000001800180d8     flightControlSystem_sfun_registry.obj
 0002:000010e0       $unwind$ssWriteRTWStr      00000001800180e0     flightControlSystem_sfun_registry.obj
 0002:000010e8       $unwind$ssWriteRTWWorkVect 00000001800180e8     flightControlSystem_sfun_registry.obj
 0002:000010fc       $unwind$ssWarning          00000001800180fc     flightControlSystem_sfun_registry.obj
 0002:00001110       $unwind$ssGetRootSS        0000000180018110     flightControlSystem_sfun_registry.obj
 0002:00001118       $unwind$ssGetParentSS      0000000180018118     flightControlSystem_sfun_registry.obj
 0002:00001120       $unwind$ssWriteRTWNameValuePair 0000000180018120     flightControlSystem_sfun_registry.obj
 0002:00001128       $unwind$_ssSetInputPortMatrixDimensions 0000000180018128     flightControlSystem_sfun_registry.obj
 0002:00001134       $unwind$_ssSetOutputPortMatrixDimensions 0000000180018134     flightControlSystem_sfun_registry.obj
 0002:00001140       $unwind$_ssSetInputPortVectorDimension 0000000180018140     flightControlSystem_sfun_registry.obj
 0002:0000114c       $unwind$_ssSetOutputPortVectorDimension 000000018001814c     flightControlSystem_sfun_registry.obj
 0002:00001158       $unwind$ssIsRunTimeParamTunable 0000000180018158     flightControlSystem_sfun_registry.obj
 0002:00001160       $unwind$ssGetSFuncBlockHandle 0000000180018160     flightControlSystem_sfun_registry.obj
 0002:00001168       $unwind$_ssGetCallSystemNumFcnCallDestinations 0000000180018168     flightControlSystem_sfun_registry.obj
 0002:00001170       $unwind$_ssGetCurrentInputPortWidth 0000000180018170     flightControlSystem_sfun_registry.obj
 0002:00001178       $unwind$_ssGetCurrentOutputPortWidth 0000000180018178     flightControlSystem_sfun_registry.obj
 0002:00001180       $unwind$ssGetIsZeroCrossControlDisabled 0000000180018180     flightControlSystem_sfun_registry.obj
 0002:00001188       $unwind$ssSetIsInputPortUsedForContZcSignal 0000000180018188     flightControlSystem_sfun_registry.obj
 0002:00001190       $unwind$ssSetZcSignalIsZcElementDisc 0000000180018190     flightControlSystem_sfun_registry.obj
 0002:000011a0       $unwind$ssSetZcSignalName  00000001800181a0     flightControlSystem_sfun_registry.obj
 0002:000011a8       $unwind$ssSetZcSignalWidth 00000001800181a8     flightControlSystem_sfun_registry.obj
 0002:000011b0       $unwind$ssSetZcSignalZcEventType 00000001800181b0     flightControlSystem_sfun_registry.obj
 0002:000011b8       $unwind$ssSetZcSignalType  00000001800181b8     flightControlSystem_sfun_registry.obj
 0002:000011c0       $unwind$ssSetZcSignalZcTol 00000001800181c0     flightControlSystem_sfun_registry.obj
 0002:000011c8       $unwind$ssSetZcSignalNeedsEventNotification 00000001800181c8     flightControlSystem_sfun_registry.obj
 0002:000011d0       $unwind$ssCreateAndAddZcSignalInfo 00000001800181d0     flightControlSystem_sfun_registry.obj
 0002:000011d8       $unwind$ssCloneAndAddZcSignalInfo 00000001800181d8     flightControlSystem_sfun_registry.obj
 0002:000011e0       $unwind$ssGetNumZcSignals  00000001800181e0     flightControlSystem_sfun_registry.obj
 0002:000011e8       $unwind$ssGetZcSignalVector 00000001800181e8     flightControlSystem_sfun_registry.obj
 0002:000011f0       $unwind$ssGetZcSignalName  00000001800181f0     flightControlSystem_sfun_registry.obj
 0002:000011f8       $unwind$ssGetZcSignalWidth 00000001800181f8     flightControlSystem_sfun_registry.obj
 0002:00001200       $unwind$ssGetZcSignalZcEventType 0000000180018200     flightControlSystem_sfun_registry.obj
 0002:00001208       $unwind$ssGetZcSignalZcEvents 0000000180018208     flightControlSystem_sfun_registry.obj
 0002:00001210       $unwind$ssGetZcSignalType  0000000180018210     flightControlSystem_sfun_registry.obj
 0002:00001218       $unwind$ssGetZcSignalZcTol 0000000180018218     flightControlSystem_sfun_registry.obj
 0002:00001220       $unwind$ssGetZcSignalNeedsEventNotification 0000000180018220     flightControlSystem_sfun_registry.obj
 0002:00001228       $unwind$ssGetZcSignalIsZcElementDisc 0000000180018228     flightControlSystem_sfun_registry.obj
 0002:00001238       $unwind$ssGetIsInputPortElementContinuous 0000000180018238     flightControlSystem_sfun_registry.obj
 0002:00001248       $unwind$_ssGetAbsTol       0000000180018248     flightControlSystem_sfun_registry.obj
 0002:00001250       $unwind$_ssSetInputPortReusableFcn 0000000180018250     flightControlSystem_sfun_registry.obj
 0002:00001258       $unwind$_ssSetOutputPortReusableFcn 0000000180018258     flightControlSystem_sfun_registry.obj
 0002:00001260       $unwind$_ssSetSymbolicDimsSupport 0000000180018260     flightControlSystem_sfun_registry.obj
 0002:00001268       $unwind$_ssRegisterSymbolicDimsExpr 0000000180018268     flightControlSystem_sfun_registry.obj
 0002:00001270       $unwind$_ssRegisterSymbolicDimsMATLABExpr 0000000180018270     flightControlSystem_sfun_registry.obj
 0002:00001278       $unwind$_ssRegisterSymbolicDims 0000000180018278     flightControlSystem_sfun_registry.obj
 0002:00001280       $unwind$_ssRegisterSymbolicDimsString 0000000180018280     flightControlSystem_sfun_registry.obj
 0002:00001288       $unwind$_ssRegisterSymbolicDimsIntValue 0000000180018288     flightControlSystem_sfun_registry.obj
 0002:00001290       $unwind$_ssRegisterSymbolicEqualRelation 0000000180018290     flightControlSystem_sfun_registry.obj
 0002:00001298       $unwind$_ssRegisterSymbolicEqualValue 0000000180018298     flightControlSystem_sfun_registry.obj
 0002:000012a0       $unwind$_ssAmendLeadingSymbolicDims 00000001800182a0     flightControlSystem_sfun_registry.obj
 0002:000012a8       $unwind$_ssAmendTrailingSymbolicDims 00000001800182a8     flightControlSystem_sfun_registry.obj
 0002:000012b0       $unwind$_ssRegisterSymbolicDimsPlus 00000001800182b0     flightControlSystem_sfun_registry.obj
 0002:000012b8       $unwind$_ssRegisterSymbolicDimsMinus 00000001800182b8     flightControlSystem_sfun_registry.obj
 0002:000012c0       $unwind$_ssRegisterSymbolicDimsMultiply 00000001800182c0     flightControlSystem_sfun_registry.obj
 0002:000012c8       $unwind$_ssRegisterSymbolicDimsDivide 00000001800182c8     flightControlSystem_sfun_registry.obj
 0002:000012d0       $unwind$_ssGetNumSymbolicDims 00000001800182d0     flightControlSystem_sfun_registry.obj
 0002:000012d8       $unwind$_ssGetSymbolicDim  00000001800182d8     flightControlSystem_sfun_registry.obj
 0002:000012e0       $unwind$_ssSetInputPortSymbolicDimsId 00000001800182e0     flightControlSystem_sfun_registry.obj
 0002:000012e8       $unwind$_ssGetCompInputPortSymbolicDimsId 00000001800182e8     flightControlSystem_sfun_registry.obj
 0002:000012f0       $unwind$_ssSetCompInputPortSymbolicDimsId 00000001800182f0     flightControlSystem_sfun_registry.obj
 0002:000012f8       $unwind$_ssSetOutputPortSymbolicDimsId 00000001800182f8     flightControlSystem_sfun_registry.obj
 0002:00001300       $unwind$_ssGetCompOutputPortSymbolicDimsId 0000000180018300     flightControlSystem_sfun_registry.obj
 0002:00001308       $unwind$_ssSetCompOutputPortSymbolicDimsId 0000000180018308     flightControlSystem_sfun_registry.obj
 0002:00001310       $unwind$_ssGetDWorkSymbolicDimsId 0000000180018310     flightControlSystem_sfun_registry.obj
 0002:00001318       $unwind$_ssSetDWorkSymbolicDimsId 0000000180018318     flightControlSystem_sfun_registry.obj
 0002:00001320       $unwind$_ssGetCompDWorkSymbolicDimsId 0000000180018320     flightControlSystem_sfun_registry.obj
 0002:00001328       $unwind$_ssSetCompDWorkSymbolicDimsId 0000000180018328     flightControlSystem_sfun_registry.obj
 0002:00001330       $unwind$_ssCreateSLCGStringBuffer 0000000180018330     flightControlSystem_sfun_registry.obj
 0002:00001338       $unwind$_ssAddToSLCGStringBuffer 0000000180018338     flightControlSystem_sfun_registry.obj
 0002:00001340       $unwind$_ssGetPointerContainedData 0000000180018340     flightControlSystem_sfun_registry.obj
 0002:00001348       $unwind$_ssGetPointerContainedDataWidth 0000000180018348     flightControlSystem_sfun_registry.obj
 0002:00001350       $unwind$_ssRegisterDynamicArrayDataTypeFcn 0000000180018350     flightControlSystem_sfun_registry.obj
 0002:00001358       $unwind$_ssGetDynamicArrayContainedDataCurrentWidthFcn 0000000180018358     flightControlSystem_sfun_registry.obj
 0002:00001360       $unwind$_ssGetDynamicArrayContainedDataFcn 0000000180018360     flightControlSystem_sfun_registry.obj
 0002:00001368       $unwind$_ssGetInputPortDynamicArrayDataFcn 0000000180018368     flightControlSystem_sfun_registry.obj
 0002:00001370       $unwind$_ssGetOutputPortDynamicArrayDataFcn 0000000180018370     flightControlSystem_sfun_registry.obj
 0002:00001378       $unwind$_ssGetInputPortDynamicArrayContainedDataFcn 0000000180018378     flightControlSystem_sfun_registry.obj
 0002:00001380       $unwind$_ssGetOutputPortDynamicArrayContainedDataFcn 0000000180018380     flightControlSystem_sfun_registry.obj
 0002:00001388       $unwind$_ssGetDynamicArrayDWorkContainedDataFcn 0000000180018388     flightControlSystem_sfun_registry.obj
 0002:00001390       $unwind$sf_process_check_sum_call 0000000180018390     flightControlSystem_sfun_registry.obj
 0002:00001398       $unwind$sf_process_get_third_party_uses_info_call 0000000180018398     flightControlSystem_sfun_registry.obj
 0002:000013a8       $unwind$sf_process_get_jit_fallback_info_call 00000001800183a8     flightControlSystem_sfun_registry.obj
 0002:000013b8       $unwind$sf_process_get_post_codegen_info_call 00000001800183b8     flightControlSystem_sfun_registry.obj
 0002:000013c8       $unwind$sf_process_get_updateBuildInfo_args_info_call 00000001800183c8     flightControlSystem_sfun_registry.obj
 0002:000013d8       $unwind$sf_process_get_eml_resolved_functions_info_call 00000001800183d8     flightControlSystem_sfun_registry.obj
 0002:000013e8       $unwind$sf_mex_unlock_call 00000001800183e8     flightControlSystem_sfun_registry.obj
 0002:000013f8       $unwind$ProcessMexSfunctionCmdLineCall 00000001800183f8     flightControlSystem_sfun_registry.obj
 0002:00001400       $unwind$sf_machine_global_initializer_called 0000000180018400     flightControlSystem_sfun_registry.obj
 0002:00001408       $unwind$sf_machine_global_method_dispatcher 0000000180018408     flightControlSystem_sfun_registry.obj
 0002:00001410       $unwind$sf_machine_global_terminator 0000000180018410     flightControlSystem_sfun_registry.obj
 0002:00001418       $unwind$sf_machine_global_initializer 0000000180018418     flightControlSystem_sfun_registry.obj
 0002:00001420       $unwind$mdlGetSimState     0000000180018420     flightControlSystem_sfun_registry.obj
 0002:00001428       $unwind$mdlSetSimState     0000000180018428     flightControlSystem_sfun_registry.obj
 0002:00001430       $unwind$mdlSetWorkWidths   0000000180018430     flightControlSystem_sfun_registry.obj
 0002:00001438       $unwind$mdlProcessParameters 0000000180018438     flightControlSystem_sfun_registry.obj
 0002:00001440       $unwind$mdl_setup_runtime_resources_processing 0000000180018440     flightControlSystem_sfun_registry.obj
 0002:00001448       $unwind$mdlSetupRuntimeResources 0000000180018448     flightControlSystem_sfun_registry.obj
 0002:00001450       $unwind$mdl_cleanup_runtime_resources_processing 0000000180018450     flightControlSystem_sfun_registry.obj
 0002:00001458       $unwind$mdlCleanupRuntimeResources 0000000180018458     flightControlSystem_sfun_registry.obj
 0002:00001460       $unwind$mdl_start_processing 0000000180018460     flightControlSystem_sfun_registry.obj
 0002:00001468       $unwind$mdlStart           0000000180018468     flightControlSystem_sfun_registry.obj
 0002:00001470       $unwind$mdl_terminate_processing 0000000180018470     flightControlSystem_sfun_registry.obj
 0002:00001478       $unwind$mdlTerminate       0000000180018478     flightControlSystem_sfun_registry.obj
 0002:00001480       $unwind$mdlInitializeSizes 0000000180018480     flightControlSystem_sfun_registry.obj
 0002:00001488       $unwind$mdlInitializeSampleTimes 0000000180018488     flightControlSystem_sfun_registry.obj
 0002:00001490       $unwind$mdl_outputs_continuous_legacy 0000000180018490     flightControlSystem_sfun_registry.obj
 0002:00001498       $unwind$mdl_outputs_processing 0000000180018498     flightControlSystem_sfun_registry.obj
 0002:000014a0       $unwind$mdl_zeroCrossings_processing 00000001800184a0     flightControlSystem_sfun_registry.obj
 0002:000014a8       $unwind$mdlZeroCrossings   00000001800184a8     flightControlSystem_sfun_registry.obj
 0002:000014b0       $unwind$mdl_derivatives_processing 00000001800184b0     flightControlSystem_sfun_registry.obj
 0002:000014b8       $unwind$mdlDerivatives     00000001800184b8     flightControlSystem_sfun_registry.obj
 0002:000014c0       $unwind$mdl_initialize_conditions_processing 00000001800184c0     flightControlSystem_sfun_registry.obj
 0002:000014c8       $unwind$mdlInitializeConditions 00000001800184c8     flightControlSystem_sfun_registry.obj
 0002:000014d0       $unwind$mdl_ext_mode_exec_processing 00000001800184d0     flightControlSystem_sfun_registry.obj
 0002:000014d8       $unwind$mdlExtModeExec     00000001800184d8     flightControlSystem_sfun_registry.obj
 0002:000014e0       $unwind$mdlRTW             00000001800184e0     flightControlSystem_sfun_registry.obj
 0002:000014e8       $unwind$mdl_enable_processing 00000001800184e8     flightControlSystem_sfun_registry.obj
 0002:000014f0       $unwind$mdlEnable          00000001800184f0     flightControlSystem_sfun_registry.obj
 0002:000014f8       $unwind$mdl_disable_processing 00000001800184f8     flightControlSystem_sfun_registry.obj
 0002:00001500       $unwind$mdlDisable         0000000180018500     flightControlSystem_sfun_registry.obj
 0002:00001508       $unwind$mdlOutputs         0000000180018508     flightControlSystem_sfun_registry.obj
 0002:00001510       $unwind$mdl_update_processing 0000000180018510     flightControlSystem_sfun_registry.obj
 0002:00001518       $unwind$mdlUpdate          0000000180018518     flightControlSystem_sfun_registry.obj
 0002:00001520       $unwind$ProcessMexSfunctionEveryCall 0000000180018520     flightControlSystem_sfun_registry.obj
 0002:00001528       $unwind$_RegNumInputPortsCB 0000000180018528     flightControlSystem_sfun_registry.obj
 0002:00001530       $unwind$_RegNumOutputPortsCB 0000000180018530     flightControlSystem_sfun_registry.obj
 0002:00001538       $unwind$_CreateSimStruct   0000000180018538     flightControlSystem_sfun_registry.obj
 0002:00001540       $unwind$_ProcessMexSfunctionCmdLineCall 0000000180018540     flightControlSystem_sfun_registry.obj
 0002:00001550       $unwind$ReportIndexOutOfBoundsError 0000000180018550     flightControlSystem_sfun_registry.obj
 0002:00001560       $unwind$getBitfieldFromFloat 0000000180018560     half_type.obj
 0002:00001568       $unwind$getFloatFromBitfield 0000000180018568     half_type.obj
 0002:00001570       $unwind$getHalfFromBitfield 0000000180018570     half_type.obj
 0002:00001578       $unwind$halfToFloat        0000000180018578     half_type.obj
 0002:00001580       $unwind$halfToDouble       0000000180018580     half_type.obj
 0002:00001588       $unwind$floatToHalf        0000000180018588     half_type.obj
 0002:00001590       $unwind$doubleToHalf       0000000180018590     half_type.obj
 0002:00001598       $unwind$__report_securityfailure 0000000180018598     MSVCRT:gs_report.obj
 0002:000015a0       $unwind$__report_securityfailureEx 00000001800185a0     MSVCRT:gs_report.obj
 0002:000015a8       $unwind$__report_rangecheckfailure 00000001800185a8     MSVCRT:gs_report.obj
 0002:000015b0       $unwind$__report_gsfailure 00000001800185b0     MSVCRT:gs_report.obj
 0002:000015b8       $unwind$capture_current_context 00000001800185b8     MSVCRT:gs_report.obj
 0002:000015c4       $unwind$capture_previous_context 00000001800185c4     MSVCRT:gs_report.obj
 0002:000015d0       $unwind$__raise_securityfailure 00000001800185d0     MSVCRT:gs_report.obj
 0002:000015d8       $unwind$__GSHandlerCheckCommon 00000001800185d8     MSVCRT:gshandler.obj
 0002:000015e0       $unwind$__GSHandlerCheck   00000001800185e0     MSVCRT:gshandler.obj
 0002:000015e8       $xdatasym                  00000001800185e8     MSVCRT:amdsecgs.obj
 0002:000015f0       $xdatasym                  00000001800185f0     MSVCRT:chkstk.obj
 0002:000015f8       $unwind$?dllmain_crt_process_attach@@YAHQEAUHINSTANCE__@@QEAX@Z 00000001800185f8     MSVCRT:dll_dllmain.obj
 0002:00001634       $unwind$?fin$0@?0??dllmain_crt_process_attach@@YAHQEAUHINSTANCE__@@QEAX@Z@4HA 0000000180018634     MSVCRT:dll_dllmain.obj
 0002:0000163c       $unwind$?dllmain_crt_process_detach@@YAH_N@Z 000000018001863c     MSVCRT:dll_dllmain.obj
 0002:00001690       $unwind$?fin$0@?0??dllmain_crt_process_detach@@YAH_N@Z@4HA 0000000180018690     MSVCRT:dll_dllmain.obj
 0002:00001698       $unwind$?fin$1@?0??dllmain_crt_process_detach@@YAH_N@Z@4HA 0000000180018698     MSVCRT:dll_dllmain.obj
 0002:000016a0       $unwind$?dllmain_crt_dispatch@@YAHQEAUHINSTANCE__@@KQEAX@Z 00000001800186a0     MSVCRT:dll_dllmain.obj
 0002:000016a8       $unwind$?dllmain_dispatch@@YAHQEAUHINSTANCE__@@KQEAX@Z 00000001800186a8     MSVCRT:dll_dllmain.obj
 0002:000016d0       $unwind$?filt$0@?0??dllmain_dispatch@@YAHQEAUHINSTANCE__@@KQEAX@Z@4HA 00000001800186d0     MSVCRT:dll_dllmain.obj
 0002:000016d8       $unwind$_DllMainCRTStartup 00000001800186d8     MSVCRT:dll_dllmain.obj
 0002:000016e8       $unwind$__security_init_cookie 00000001800186e8     MSVCRT:gs_support.obj
 0002:000016f4       $unwind$__get_entropy      00000001800186f4     MSVCRT:gs_support.obj
 0002:000016fc       $unwind$DllMain            00000001800186fc     MSVCRT:dll_dllmain_stub.obj
 0002:00001704       $unwind$__scrt_initialize_default_local_stdio_options 0000000180018704     MSVCRT:default_local_stdio_options.obj
 0002:0000170c       $unwind$atexit             000000018001870c     MSVCRT:utility.obj
 0002:00001714       $unwind$_onexit            0000000180018714     MSVCRT:utility.obj
 0002:0000171c       $unwind$__scrt_is_nonwritable_in_current_image 000000018001871c     MSVCRT:utility.obj
 0002:0000173c       $unwind$__scrt_is_nonwritable_in_current_image$filt$0 000000018001873c     MSVCRT:utility.obj
 0002:00001744       $unwind$__scrt_acquire_startup_lock 0000000180018744     MSVCRT:utility.obj
 0002:0000174c       $unwind$__scrt_release_startup_lock 000000018001874c     MSVCRT:utility.obj
 0002:00001754       $unwind$__scrt_initialize_crt 0000000180018754     MSVCRT:utility.obj
 0002:0000175c       $unwind$__scrt_uninitialize_crt 000000018001875c     MSVCRT:utility.obj
 0002:00001764       $unwind$__scrt_initialize_onexit_tables 0000000180018764     MSVCRT:utility.obj
 0002:0000176c       $unwind$__scrt_dllmain_exception_filter 000000018001876c     MSVCRT:utility.obj
 0002:00001780       $unwind$__scrt_dllmain_before_initialize_c 0000000180018780     MSVCRT:utility.obj
 0002:00001788       $unwind$__scrt_dllmain_after_initialize_c 0000000180018788     MSVCRT:utility.obj
 0002:00001790       $unwind$__scrt_dllmain_uninitialize_c 0000000180018790     MSVCRT:utility.obj
 0002:00001798       $unwind$__scrt_dllmain_uninitialize_critical 0000000180018798     MSVCRT:utility.obj
 0002:000017a0       $unwind$__scrt_dllmain_crt_thread_attach 00000001800187a0     MSVCRT:utility.obj
 0002:000017a8       $unwind$__scrt_dllmain_crt_thread_detach 00000001800187a8     MSVCRT:utility.obj
 0002:000017b0       $unwind$?configure_argv@__scrt_narrow_argv_policy@@SAHXZ 00000001800187b0     MSVCRT:utility.obj
 0002:000017b8       $unwind$__scrt_get_show_window_mode 00000001800187b8     MSVCRT:utility_desktop.obj
 0002:000017c0       $unwind$__scrt_is_managed_app 00000001800187c0     MSVCRT:utility_desktop.obj
 0002:000017c8       $unwind$__scrt_fastfail    00000001800187c8     MSVCRT:utility_desktop.obj
 0002:000017d8       $unwind$__scrt_unhandled_exception_filter 00000001800187d8     MSVCRT:utility_desktop.obj
 0002:000017e4       $unwind$_RTC_Initialize    00000001800187e4     MSVCRT:initsect.obj
 0002:000017f0       $unwind$_RTC_Terminate     00000001800187f0     MSVCRT:initsect.obj
 0002:000017fc       $unwind$__castguard_check_failure_os_handled_wrapper 00000001800187fc     MSVCRT:guard_support.obj
 0002:00001804       $unwind$__castguard_check_failure_os_handled 0000000180018804     MSVCRT:guard_support.obj
 0002:0000180c       $unwind$__castguard_slow_path_check_os_handled 000000018001880c     MSVCRT:guard_support.obj
 0002:00001814       $unwind$__isa_available_init 0000000180018814     MSVCRT:cpu_disp.obj
 0002:00001828       $xdatasym                  0000000180018828     MSVCRT:guard_dispatch.obj
 0002:00001830       $xdatasym                  0000000180018830     MSVCRT:guard_xfg_dispatch.obj
 0002:00001840       .edata                     0000000180018840     flightControlSystem_sfun.exp
 0002:00001868       rgpv                       0000000180018868     flightControlSystem_sfun.exp
 0002:00001870       rgszName                   0000000180018870     flightControlSystem_sfun.exp
 0002:00001878       rgwOrd                     0000000180018878     flightControlSystem_sfun.exp
 0002:0000187c       szName                     000000018001887c     flightControlSystem_sfun.exp
 0002:0000189c       $N00001                    000000018001889c     flightControlSystem_sfun.exp
 0002:000018a8       $N00002                    00000001800188a8     flightControlSystem_sfun.exp
 0002:00001ec2       .idata$6                   0000000180018ec2     libmwgrayto8:libmwgrayto8.dll
 0002:00001eea       .idata$6                   0000000180018eea     libmwrgb2gray_tbb:libmwrgb2gray_tbb.dll
 0002:00001f0e       .idata$6                   0000000180018f0e     libmwgetnumcores:libmwgetnumcores.dll
 0002:000022c2       .idata$6                   00000001800192c2     sf_runtime:sf_runtime.dll
 0002:0000245c       .idata$6                   000000018001945c     libmx:libmx.dll
 0002:000024f0       .idata$6                   00000001800194f0     libmex:libmex.dll
 0002:00002512       .idata$6                   0000000180019512     libut:libut.dll
 0002:00002574       .idata$6                   0000000180019574     libmwmathutil:libmwmathutil.dll
 0002:000025fa       .idata$6                   00000001800195fa     libemlrt:libemlrt.dll
 0002:0000273a       .idata$6                   000000018001973a     libcovrt:libcovrt.dll
 0002:000028d4       .idata$6                   00000001800198d4     kernel32:KERNEL32.dll
 0002:00002962       .idata$6                   0000000180019962     vcruntime:VCRUNTIME140.dll
 0002:00002ab0       .idata$6                   0000000180019ab0     ucrt:api-ms-win-crt-string-l1-1-0.dll
 0002:00002ad2       .idata$6                   0000000180019ad2     ucrt:api-ms-win-crt-stdio-l1-1-0.dll
 0002:00002af2       .idata$6                   0000000180019af2     ucrt:api-ms-win-crt-heap-l1-1-0.dll
 0002:00002b12       .idata$6                   0000000180019b12     ucrt:api-ms-win-crt-runtime-l1-1-0.dll
 0003:00000000       $SG26545                   000000018001a000     flightControlSystem_sfun.obj
 0003:00000018       $SG26550                   000000018001a018     flightControlSystem_sfun.obj
 0003:00000020       $SG26553                   000000018001a020     flightControlSystem_sfun.obj
 0003:00000028       $SG26559                   000000018001a028     flightControlSystem_sfun.obj
 0003:00000030       $SG26593                   000000018001a030     flightControlSystem_sfun.obj
 0003:00000050       $SG26596                   000000018001a050     flightControlSystem_sfun.obj
 0003:00000068       $SG26599                   000000018001a068     flightControlSystem_sfun.obj
 0003:00000080       $SG26630                   000000018001a080     flightControlSystem_sfun.obj
 0003:000000a0       $SG26633                   000000018001a0a0     flightControlSystem_sfun.obj
 0003:000000b8       $SG26636                   000000018001a0b8     flightControlSystem_sfun.obj
 0003:000000d0       $SG26667                   000000018001a0d0     flightControlSystem_sfun.obj
 0003:000000e8       $SG26670                   000000018001a0e8     flightControlSystem_sfun.obj
 0003:00000100       $SG26673                   000000018001a100     flightControlSystem_sfun.obj
 0003:00000118       $SG26706                   000000018001a118     flightControlSystem_sfun.obj
 0003:00000130       $SG26709                   000000018001a130     flightControlSystem_sfun.obj
 0003:00000148       $SG26712                   000000018001a148     flightControlSystem_sfun.obj
 0003:00000160       $SG26743                   000000018001a160     flightControlSystem_sfun.obj
 0003:00000180       $SG26746                   000000018001a180     flightControlSystem_sfun.obj
 0003:00000198       $SG26749                   000000018001a198     flightControlSystem_sfun.obj
 0003:000001b0       $SG26771                   000000018001a1b0     flightControlSystem_sfun.obj
 0003:000001c8       $SG26772                   000000018001a1c8     flightControlSystem_sfun.obj
 0003:000001e0       $SG26423                   000000018001a1e0     c4_flightControlSystem.obj
 0003:000001f0       $SG26424                   000000018001a1f0     c4_flightControlSystem.obj
 0003:00000250       $SG26426                   000000018001a250     c4_flightControlSystem.obj
 0003:00000264       $SG26429                   000000018001a264     c4_flightControlSystem.obj
 0003:00000270       $SG26427                   000000018001a270     c4_flightControlSystem.obj
 0003:000002d0       $SG26430                   000000018001a2d0     c4_flightControlSystem.obj
 0003:00000318       $SG26432                   000000018001a318     c4_flightControlSystem.obj
 0003:00000344       $SG26450                   000000018001a344     c4_flightControlSystem.obj
 0003:00000350       $SG26433                   000000018001a350     c4_flightControlSystem.obj
 0003:00000370       $SG26435                   000000018001a370     c4_flightControlSystem.obj
 0003:0000039c       $SG26453                   000000018001a39c     c4_flightControlSystem.obj
 0003:000003a8       $SG26436                   000000018001a3a8     c4_flightControlSystem.obj
 0003:000003c8       $SG26438                   000000018001a3c8     c4_flightControlSystem.obj
 0003:000003d0       $SG26439                   000000018001a3d0     c4_flightControlSystem.obj
 0003:00000418       $SG26441                   000000018001a418     c4_flightControlSystem.obj
 0003:00000428       $SG26444                   000000018001a428     c4_flightControlSystem.obj
 0003:00000434       $SG26456                   000000018001a434     c4_flightControlSystem.obj
 0003:00000440       $SG26442                   000000018001a440     c4_flightControlSystem.obj
 0003:00000488       $SG26459                   000000018001a488     c4_flightControlSystem.obj
 0003:00000490       $SG26445                   000000018001a490     c4_flightControlSystem.obj
 0003:000004d8       $SG26447                   000000018001a4d8     c4_flightControlSystem.obj
 0003:000004e8       $SG26462                   000000018001a4e8     c4_flightControlSystem.obj
 0003:000004f0       $SG26448                   000000018001a4f0     c4_flightControlSystem.obj
 0003:00000538       $SG26471                   000000018001a538     c4_flightControlSystem.obj
 0003:00000550       $SG26451                   000000018001a550     c4_flightControlSystem.obj
 0003:00000598       $SG26465                   000000018001a598     c4_flightControlSystem.obj
 0003:000005a4       $SG26474                   000000018001a5a4     c4_flightControlSystem.obj
 0003:000005b0       $SG26454                   000000018001a5b0     c4_flightControlSystem.obj
 0003:000005f8       $SG26468                   000000018001a5f8     c4_flightControlSystem.obj
 0003:00000604       $SG26477                   000000018001a604     c4_flightControlSystem.obj
 0003:00000610       $SG26457                   000000018001a610     c4_flightControlSystem.obj
 0003:00000654       $SG26481                   000000018001a654     c4_flightControlSystem.obj
 0003:00000660       $SG26460                   000000018001a660     c4_flightControlSystem.obj
 0003:000006a4       $SG26484                   000000018001a6a4     c4_flightControlSystem.obj
 0003:000006b0       $SG26463                   000000018001a6b0     c4_flightControlSystem.obj
 0003:0000070c       $SG26488                   000000018001a70c     c4_flightControlSystem.obj
 0003:00000714       $SG26491                   000000018001a714     c4_flightControlSystem.obj
 0003:00000720       $SG26466                   000000018001a720     c4_flightControlSystem.obj
 0003:00000768       $SG26495                   000000018001a768     c4_flightControlSystem.obj
 0003:00000770       $SG26469                   000000018001a770     c4_flightControlSystem.obj
 0003:000007b8       $SG26498                   000000018001a7b8     c4_flightControlSystem.obj
 0003:000007c0       $SG26472                   000000018001a7c0     c4_flightControlSystem.obj
 0003:00000810       $SG26475                   000000018001a810     c4_flightControlSystem.obj
 0003:00000858       $SG26502                   000000018001a858     c4_flightControlSystem.obj
 0003:00000860       $SG26478                   000000018001a860     c4_flightControlSystem.obj
 0003:000008a4       $SG26505                   000000018001a8a4     c4_flightControlSystem.obj
 0003:000008b0       $SG26482                   000000018001a8b0     c4_flightControlSystem.obj
 0003:000008f4       $SG26509                   000000018001a8f4     c4_flightControlSystem.obj
 0003:00000900       $SG26485                   000000018001a900     c4_flightControlSystem.obj
 0003:00000944       $SG26512                   000000018001a944     c4_flightControlSystem.obj
 0003:00000950       $SG26489                   000000018001a950     c4_flightControlSystem.obj
 0003:00000994       $SG26516                   000000018001a994     c4_flightControlSystem.obj
 0003:000009a0       $SG26492                   000000018001a9a0     c4_flightControlSystem.obj
 0003:000009e4       $SG26519                   000000018001a9e4     c4_flightControlSystem.obj
 0003:000009f0       $SG26496                   000000018001a9f0     c4_flightControlSystem.obj
 0003:00000a34       $SG26523                   000000018001aa34     c4_flightControlSystem.obj
 0003:00000a40       $SG26499                   000000018001aa40     c4_flightControlSystem.obj
 0003:00000a84       $SG26526                   000000018001aa84     c4_flightControlSystem.obj
 0003:00000a90       $SG26503                   000000018001aa90     c4_flightControlSystem.obj
 0003:00000ad4       $SG26530                   000000018001aad4     c4_flightControlSystem.obj
 0003:00000ae0       $SG26506                   000000018001aae0     c4_flightControlSystem.obj
 0003:00000b24       $SG26533                   000000018001ab24     c4_flightControlSystem.obj
 0003:00000b30       $SG26510                   000000018001ab30     c4_flightControlSystem.obj
 0003:00000b74       $SG26537                   000000018001ab74     c4_flightControlSystem.obj
 0003:00000b80       $SG26513                   000000018001ab80     c4_flightControlSystem.obj
 0003:00000bc4       $SG26540                   000000018001abc4     c4_flightControlSystem.obj
 0003:00000bd0       $SG26517                   000000018001abd0     c4_flightControlSystem.obj
 0003:00000c14       $SG26544                   000000018001ac14     c4_flightControlSystem.obj
 0003:00000c20       $SG26520                   000000018001ac20     c4_flightControlSystem.obj
 0003:00000c64       $SG26547                   000000018001ac64     c4_flightControlSystem.obj
 0003:00000c70       $SG26524                   000000018001ac70     c4_flightControlSystem.obj
 0003:00000cb4       $SG26551                   000000018001acb4     c4_flightControlSystem.obj
 0003:00000cc0       $SG26527                   000000018001acc0     c4_flightControlSystem.obj
 0003:00000d04       $SG26554                   000000018001ad04     c4_flightControlSystem.obj
 0003:00000d10       $SG26531                   000000018001ad10     c4_flightControlSystem.obj
 0003:00000d54       $SG26558                   000000018001ad54     c4_flightControlSystem.obj
 0003:00000d60       $SG26534                   000000018001ad60     c4_flightControlSystem.obj
 0003:00000da4       $SG26561                   000000018001ada4     c4_flightControlSystem.obj
 0003:00000db0       $SG26538                   000000018001adb0     c4_flightControlSystem.obj
 0003:00000df4       $SG26565                   000000018001adf4     c4_flightControlSystem.obj
 0003:00000e00       $SG26541                   000000018001ae00     c4_flightControlSystem.obj
 0003:00000e44       $SG26568                   000000018001ae44     c4_flightControlSystem.obj
 0003:00000e50       $SG26545                   000000018001ae50     c4_flightControlSystem.obj
 0003:00000e94       $SG26572                   000000018001ae94     c4_flightControlSystem.obj
 0003:00000ea0       $SG26548                   000000018001aea0     c4_flightControlSystem.obj
 0003:00000ee4       $SG26575                   000000018001aee4     c4_flightControlSystem.obj
 0003:00000ef0       $SG26552                   000000018001aef0     c4_flightControlSystem.obj
 0003:00000f34       $SG26579                   000000018001af34     c4_flightControlSystem.obj
 0003:00000f40       $SG26555                   000000018001af40     c4_flightControlSystem.obj
 0003:00000f84       $SG26582                   000000018001af84     c4_flightControlSystem.obj
 0003:00000f90       $SG26559                   000000018001af90     c4_flightControlSystem.obj
 0003:00000fd4       $SG26586                   000000018001afd4     c4_flightControlSystem.obj
 0003:00000fe0       $SG26562                   000000018001afe0     c4_flightControlSystem.obj
 0003:00001024       $SG26589                   000000018001b024     c4_flightControlSystem.obj
 0003:00001030       $SG26566                   000000018001b030     c4_flightControlSystem.obj
 0003:00001074       $SG26593                   000000018001b074     c4_flightControlSystem.obj
 0003:00001080       $SG26569                   000000018001b080     c4_flightControlSystem.obj
 0003:000010c4       $SG26596                   000000018001b0c4     c4_flightControlSystem.obj
 0003:000010d0       $SG26573                   000000018001b0d0     c4_flightControlSystem.obj
 0003:00001114       $SG26600                   000000018001b114     c4_flightControlSystem.obj
 0003:00001120       $SG26576                   000000018001b120     c4_flightControlSystem.obj
 0003:00001164       $SG26603                   000000018001b164     c4_flightControlSystem.obj
 0003:00001170       $SG26580                   000000018001b170     c4_flightControlSystem.obj
 0003:000011b4       $SG26607                   000000018001b1b4     c4_flightControlSystem.obj
 0003:000011c0       $SG26583                   000000018001b1c0     c4_flightControlSystem.obj
 0003:00001204       $SG26610                   000000018001b204     c4_flightControlSystem.obj
 0003:00001210       $SG26587                   000000018001b210     c4_flightControlSystem.obj
 0003:00001254       $SG26614                   000000018001b254     c4_flightControlSystem.obj
 0003:00001260       $SG26590                   000000018001b260     c4_flightControlSystem.obj
 0003:000012a4       $SG26617                   000000018001b2a4     c4_flightControlSystem.obj
 0003:000012b0       $SG26594                   000000018001b2b0     c4_flightControlSystem.obj
 0003:000012f8       $SG26621                   000000018001b2f8     c4_flightControlSystem.obj
 0003:00001310       $SG26597                   000000018001b310     c4_flightControlSystem.obj
 0003:00001358       $SG26624                   000000018001b358     c4_flightControlSystem.obj
 0003:00001370       $SG26601                   000000018001b370     c4_flightControlSystem.obj
 0003:000013b8       $SG26628                   000000018001b3b8     c4_flightControlSystem.obj
 0003:000013d0       $SG26604                   000000018001b3d0     c4_flightControlSystem.obj
 0003:00001418       $SG26631                   000000018001b418     c4_flightControlSystem.obj
 0003:00001430       $SG26608                   000000018001b430     c4_flightControlSystem.obj
 0003:00001478       $SG26635                   000000018001b478     c4_flightControlSystem.obj
 0003:00001490       $SG26611                   000000018001b490     c4_flightControlSystem.obj
 0003:000014d8       $SG26638                   000000018001b4d8     c4_flightControlSystem.obj
 0003:000014f0       $SG26615                   000000018001b4f0     c4_flightControlSystem.obj
 0003:00001538       $SG26642                   000000018001b538     c4_flightControlSystem.obj
 0003:00001550       $SG26618                   000000018001b550     c4_flightControlSystem.obj
 0003:00001598       $SG26645                   000000018001b598     c4_flightControlSystem.obj
 0003:000015b0       $SG26622                   000000018001b5b0     c4_flightControlSystem.obj
 0003:00001600       $SG26625                   000000018001b600     c4_flightControlSystem.obj
 0003:00001650       $SG26629                   000000018001b650     c4_flightControlSystem.obj
 0003:000016a0       $SG26632                   000000018001b6a0     c4_flightControlSystem.obj
 0003:000016f0       $SG26636                   000000018001b6f0     c4_flightControlSystem.obj
 0003:00001740       $SG26639                   000000018001b740     c4_flightControlSystem.obj
 0003:00001790       $SG26643                   000000018001b790     c4_flightControlSystem.obj
 0003:000017e0       $SG26646                   000000018001b7e0     c4_flightControlSystem.obj
 0003:00001828       $SG26649                   000000018001b828     c4_flightControlSystem.obj
 0003:00001840       $SG26650                   000000018001b840     c4_flightControlSystem.obj
 0003:00001888       $SG26652                   000000018001b888     c4_flightControlSystem.obj
 0003:000018a0       $SG26653                   000000018001b8a0     c4_flightControlSystem.obj
 0003:000018e8       $SG26656                   000000018001b8e8     c4_flightControlSystem.obj
 0003:00001900       $SG26657                   000000018001b900     c4_flightControlSystem.obj
 0003:00001948       $SG26659                   000000018001b948     c4_flightControlSystem.obj
 0003:00001960       $SG26660                   000000018001b960     c4_flightControlSystem.obj
 0003:000019a8       $SG26663                   000000018001b9a8     c4_flightControlSystem.obj
 0003:000019c0       $SG26664                   000000018001b9c0     c4_flightControlSystem.obj
 0003:00001a08       $SG26666                   000000018001ba08     c4_flightControlSystem.obj
 0003:00001a20       $SG26667                   000000018001ba20     c4_flightControlSystem.obj
 0003:00001a68       $SG26670                   000000018001ba68     c4_flightControlSystem.obj
 0003:00001a80       $SG26671                   000000018001ba80     c4_flightControlSystem.obj
 0003:00001ac8       $SG26673                   000000018001bac8     c4_flightControlSystem.obj
 0003:00001ae0       $SG26674                   000000018001bae0     c4_flightControlSystem.obj
 0003:00001b28       $SG26677                   000000018001bb28     c4_flightControlSystem.obj
 0003:00001b40       $SG26678                   000000018001bb40     c4_flightControlSystem.obj
 0003:00001b88       $SG26680                   000000018001bb88     c4_flightControlSystem.obj
 0003:00001ba0       $SG26681                   000000018001bba0     c4_flightControlSystem.obj
 0003:00001be8       $SG26684                   000000018001bbe8     c4_flightControlSystem.obj
 0003:00001c00       $SG26685                   000000018001bc00     c4_flightControlSystem.obj
 0003:00001c48       $SG26687                   000000018001bc48     c4_flightControlSystem.obj
 0003:00001c60       $SG26688                   000000018001bc60     c4_flightControlSystem.obj
 0003:00001ca8       c4_emlrtMCI                000000018001bca8     c4_flightControlSystem.obj
 0003:00001cc0       c4_b_emlrtMCI              000000018001bcc0     c4_flightControlSystem.obj
 0003:00001cd8       c4_emlrtRSI                000000018001bcd8     c4_flightControlSystem.obj
 0003:00001cf0       c4_b_emlrtRSI              000000018001bcf0     c4_flightControlSystem.obj
 0003:00001d08       c4_c_emlrtRSI              000000018001bd08     c4_flightControlSystem.obj
 0003:00001d20       c4_d_emlrtRSI              000000018001bd20     c4_flightControlSystem.obj
 0003:00001d38       c4_e_emlrtRSI              000000018001bd38     c4_flightControlSystem.obj
 0003:00001d50       c4_f_emlrtRSI              000000018001bd50     c4_flightControlSystem.obj
 0003:00001d68       c4_g_emlrtRSI              000000018001bd68     c4_flightControlSystem.obj
 0003:00001d80       c4_h_emlrtRSI              000000018001bd80     c4_flightControlSystem.obj
 0003:00001d98       c4_i_emlrtRSI              000000018001bd98     c4_flightControlSystem.obj
 0003:00001db0       c4_l_emlrtRSI              000000018001bdb0     c4_flightControlSystem.obj
 0003:00001dc8       c4_m_emlrtRSI              000000018001bdc8     c4_flightControlSystem.obj
 0003:00001de0       c4_n_emlrtRSI              000000018001bde0     c4_flightControlSystem.obj
 0003:00001df8       c4_o_emlrtRSI              000000018001bdf8     c4_flightControlSystem.obj
 0003:00001e10       c4_emlrtBCI                000000018001be10     c4_flightControlSystem.obj
 0003:00001e40       c4_emlrtDCI                000000018001be40     c4_flightControlSystem.obj
 0003:00001e60       c4_b_emlrtBCI              000000018001be60     c4_flightControlSystem.obj
 0003:00001e90       c4_b_emlrtDCI              000000018001be90     c4_flightControlSystem.obj
 0003:00001eb0       c4_c_emlrtBCI              000000018001beb0     c4_flightControlSystem.obj
 0003:00001ee0       c4_c_emlrtDCI              000000018001bee0     c4_flightControlSystem.obj
 0003:00001f00       c4_d_emlrtBCI              000000018001bf00     c4_flightControlSystem.obj
 0003:00001f30       c4_d_emlrtDCI              000000018001bf30     c4_flightControlSystem.obj
 0003:00001f50       c4_e_emlrtBCI              000000018001bf50     c4_flightControlSystem.obj
 0003:00001f80       c4_e_emlrtDCI              000000018001bf80     c4_flightControlSystem.obj
 0003:00001fa0       c4_f_emlrtBCI              000000018001bfa0     c4_flightControlSystem.obj
 0003:00001fd0       c4_f_emlrtDCI              000000018001bfd0     c4_flightControlSystem.obj
 0003:00001ff0       c4_g_emlrtBCI              000000018001bff0     c4_flightControlSystem.obj
 0003:00002020       c4_g_emlrtDCI              000000018001c020     c4_flightControlSystem.obj
 0003:00002040       c4_h_emlrtBCI              000000018001c040     c4_flightControlSystem.obj
 0003:00002070       c4_h_emlrtDCI              000000018001c070     c4_flightControlSystem.obj
 0003:00002090       c4_i_emlrtBCI              000000018001c090     c4_flightControlSystem.obj
 0003:000020c0       c4_i_emlrtDCI              000000018001c0c0     c4_flightControlSystem.obj
 0003:000020e0       c4_j_emlrtBCI              000000018001c0e0     c4_flightControlSystem.obj
 0003:00002110       c4_j_emlrtDCI              000000018001c110     c4_flightControlSystem.obj
 0003:00002130       c4_k_emlrtBCI              000000018001c130     c4_flightControlSystem.obj
 0003:00002160       c4_k_emlrtDCI              000000018001c160     c4_flightControlSystem.obj
 0003:00002180       c4_l_emlrtBCI              000000018001c180     c4_flightControlSystem.obj
 0003:000021b0       c4_l_emlrtDCI              000000018001c1b0     c4_flightControlSystem.obj
 0003:000021d0       c4_m_emlrtBCI              000000018001c1d0     c4_flightControlSystem.obj
 0003:00002200       c4_m_emlrtDCI              000000018001c200     c4_flightControlSystem.obj
 0003:00002220       c4_n_emlrtBCI              000000018001c220     c4_flightControlSystem.obj
 0003:00002250       c4_n_emlrtDCI              000000018001c250     c4_flightControlSystem.obj
 0003:00002270       c4_o_emlrtBCI              000000018001c270     c4_flightControlSystem.obj
 0003:000022a0       c4_o_emlrtDCI              000000018001c2a0     c4_flightControlSystem.obj
 0003:000022c0       c4_p_emlrtBCI              000000018001c2c0     c4_flightControlSystem.obj
 0003:000022f0       c4_p_emlrtDCI              000000018001c2f0     c4_flightControlSystem.obj
 0003:00002310       c4_q_emlrtBCI              000000018001c310     c4_flightControlSystem.obj
 0003:00002340       c4_q_emlrtDCI              000000018001c340     c4_flightControlSystem.obj
 0003:00002360       c4_r_emlrtBCI              000000018001c360     c4_flightControlSystem.obj
 0003:00002390       c4_r_emlrtDCI              000000018001c390     c4_flightControlSystem.obj
 0003:000023b0       c4_s_emlrtBCI              000000018001c3b0     c4_flightControlSystem.obj
 0003:000023e0       c4_s_emlrtDCI              000000018001c3e0     c4_flightControlSystem.obj
 0003:00002400       c4_t_emlrtBCI              000000018001c400     c4_flightControlSystem.obj
 0003:00002430       c4_t_emlrtDCI              000000018001c430     c4_flightControlSystem.obj
 0003:00002450       c4_u_emlrtBCI              000000018001c450     c4_flightControlSystem.obj
 0003:00002480       c4_u_emlrtDCI              000000018001c480     c4_flightControlSystem.obj
 0003:000024a0       c4_v_emlrtBCI              000000018001c4a0     c4_flightControlSystem.obj
 0003:000024d0       c4_v_emlrtDCI              000000018001c4d0     c4_flightControlSystem.obj
 0003:000024f0       c4_w_emlrtBCI              000000018001c4f0     c4_flightControlSystem.obj
 0003:00002520       c4_w_emlrtDCI              000000018001c520     c4_flightControlSystem.obj
 0003:00002540       c4_x_emlrtBCI              000000018001c540     c4_flightControlSystem.obj
 0003:00002570       c4_x_emlrtDCI              000000018001c570     c4_flightControlSystem.obj
 0003:00002590       c4_y_emlrtBCI              000000018001c590     c4_flightControlSystem.obj
 0003:000025c0       c4_y_emlrtDCI              000000018001c5c0     c4_flightControlSystem.obj
 0003:000025e0       c4_ab_emlrtBCI             000000018001c5e0     c4_flightControlSystem.obj
 0003:00002610       c4_ab_emlrtDCI             000000018001c610     c4_flightControlSystem.obj
 0003:00002630       c4_bb_emlrtBCI             000000018001c630     c4_flightControlSystem.obj
 0003:00002660       c4_bb_emlrtDCI             000000018001c660     c4_flightControlSystem.obj
 0003:00002680       c4_cb_emlrtBCI             000000018001c680     c4_flightControlSystem.obj
 0003:000026b0       c4_cb_emlrtDCI             000000018001c6b0     c4_flightControlSystem.obj
 0003:000026d0       c4_db_emlrtBCI             000000018001c6d0     c4_flightControlSystem.obj
 0003:00002700       c4_db_emlrtDCI             000000018001c700     c4_flightControlSystem.obj
 0003:00002720       c4_eb_emlrtBCI             000000018001c720     c4_flightControlSystem.obj
 0003:00002750       c4_eb_emlrtDCI             000000018001c750     c4_flightControlSystem.obj
 0003:00002770       $SG26764                   000000018001c770     c4_flightControlSystem.obj
 0003:00002780       $SG26765                   000000018001c780     c4_flightControlSystem.obj
 0003:000027a8       $SG26788                   000000018001c7a8     c4_flightControlSystem.obj
 0003:000027c0       ?c4_cv4@?1??sf_gateway_c4_flightControlSystem@@9@9 000000018001c7c0     c4_flightControlSystem.obj
 0003:000027f4       $SG27195                   000000018001c7f4     c4_flightControlSystem.obj
 0003:000027f8       ?c4_cv1@?1??sf_gateway_c4_flightControlSystem@@9@9 000000018001c7f8     c4_flightControlSystem.obj
 0003:00002828       ?c4_cv3@?1??sf_gateway_c4_flightControlSystem@@9@9 000000018001c828     c4_flightControlSystem.obj
 0003:00002850       ?c4_cv@?1??sf_gateway_c4_flightControlSystem@@9@9 000000018001c850     c4_flightControlSystem.obj
 0003:00002870       ?c4_cv2@?1??sf_gateway_c4_flightControlSystem@@9@9 000000018001c870     c4_flightControlSystem.obj
 0003:00002878       ?c4_cv5@?1??sf_gateway_c4_flightControlSystem@@9@9 000000018001c878     c4_flightControlSystem.obj
 0003:00002880       $SG27196                   000000018001c880     c4_flightControlSystem.obj
 0003:00002884       $SG27197                   000000018001c884     c4_flightControlSystem.obj
 0003:00002888       $SG27198                   000000018001c888     c4_flightControlSystem.obj
 0003:00002890       $SG27199                   000000018001c890     c4_flightControlSystem.obj
 0003:0000289c       $SG27200                   000000018001c89c     c4_flightControlSystem.obj
 0003:000028a4       $SG27206                   000000018001c8a4     c4_flightControlSystem.obj
 0003:000028a8       $SG27207                   000000018001c8a8     c4_flightControlSystem.obj
 0003:000028ac       $SG27208                   000000018001c8ac     c4_flightControlSystem.obj
 0003:000028b0       $SG27209                   000000018001c8b0     c4_flightControlSystem.obj
 0003:000028b8       $SG27210                   000000018001c8b8     c4_flightControlSystem.obj
 0003:000028c4       $SG27211                   000000018001c8c4     c4_flightControlSystem.obj
 0003:000028cc       $SG27271                   000000018001c8cc     c4_flightControlSystem.obj
 0003:000028d0       $SG27282                   000000018001c8d0     c4_flightControlSystem.obj
 0003:000028d8       $SG27289                   000000018001c8d8     c4_flightControlSystem.obj
 0003:000028e8       $SG27343                   000000018001c8e8     c4_flightControlSystem.obj
 0003:0000291c       $SG27507                   000000018001c91c     c4_flightControlSystem.obj
 0003:00002920       $SG27344                   000000018001c920     c4_flightControlSystem.obj
 0003:00002958       $SG27356                   000000018001c958     c4_flightControlSystem.obj
 0003:00002968       $SG27358                   000000018001c968     c4_flightControlSystem.obj
 0003:00002978       $SG27360                   000000018001c978     c4_flightControlSystem.obj
 0003:00002990       $SG27362                   000000018001c990     c4_flightControlSystem.obj
 0003:000029a8       $SG27364                   000000018001c9a8     c4_flightControlSystem.obj
 0003:000029bc       $SG27365                   000000018001c9bc     c4_flightControlSystem.obj
 0003:000029c8       $SG27366                   000000018001c9c8     c4_flightControlSystem.obj
 0003:000029e0       $SG27369                   000000018001c9e0     c4_flightControlSystem.obj
 0003:000029f8       $SG27382                   000000018001c9f8     c4_flightControlSystem.obj
 0003:00002a08       $SG27384                   000000018001ca08     c4_flightControlSystem.obj
 0003:00002a10       $SG27385                   000000018001ca10     c4_flightControlSystem.obj
 0003:00002aa8       $SG27520                   000000018001caa8     c4_flightControlSystem.obj
 0003:00002ab8       $SG27521                   000000018001cab8     c4_flightControlSystem.obj
 0003:00002ad0       $SG27469                   000000018001cad0     c4_flightControlSystem.obj
 0003:00002b20       $SG27471                   000000018001cb20     c4_flightControlSystem.obj
 0003:00002b70       $SG27473                   000000018001cb70     c4_flightControlSystem.obj
 0003:00002bc0       $SG27475                   000000018001cbc0     c4_flightControlSystem.obj
 0003:00002c10       $SG27477                   000000018001cc10     c4_flightControlSystem.obj
 0003:00002c60       $SG27479                   000000018001cc60     c4_flightControlSystem.obj
 0003:00002cb0       $SG27481                   000000018001ccb0     c4_flightControlSystem.obj
 0003:00002d00       $SG27483                   000000018001cd00     c4_flightControlSystem.obj
 0003:00002d50       $SG27485                   000000018001cd50     c4_flightControlSystem.obj
 0003:00002da0       $SG27487                   000000018001cda0     c4_flightControlSystem.obj
 0003:00002df0       $SG27489                   000000018001cdf0     c4_flightControlSystem.obj
 0003:00002e40       $SG27491                   000000018001ce40     c4_flightControlSystem.obj
 0003:00002e90       $SG27493                   000000018001ce90     c4_flightControlSystem.obj
 0003:00002ee0       $SG27495                   000000018001cee0     c4_flightControlSystem.obj
 0003:00002f30       $SG27497                   000000018001cf30     c4_flightControlSystem.obj
 0003:00002f80       $SG27499                   000000018001cf80     c4_flightControlSystem.obj
 0003:00002fd0       $SG27501                   000000018001cfd0     c4_flightControlSystem.obj
 0003:00003020       $SG27503                   000000018001d020     c4_flightControlSystem.obj
 0003:00003070       $SG27505                   000000018001d070     c4_flightControlSystem.obj
 0003:000030c0       $SG27543                   000000018001d0c0     c4_flightControlSystem.obj
 0003:000030f0       $SG27558                   000000018001d0f0     c4_flightControlSystem.obj
 0003:00003160       $SG26360                   000000018001d160     c11_flightControlSystem.obj
 0003:00003190       $SG26361                   000000018001d190     c11_flightControlSystem.obj
 0003:000031ac       $SG26434                   000000018001d1ac     c11_flightControlSystem.obj
 0003:000031b0       $SG26363                   000000018001d1b0     c11_flightControlSystem.obj
 0003:000031c0       $SG26364                   000000018001d1c0     c11_flightControlSystem.obj
 0003:00003204       $SG26441                   000000018001d204     c11_flightControlSystem.obj
 0003:00003208       $SG26366                   000000018001d208     c11_flightControlSystem.obj
 0003:00003218       $SG26369                   000000018001d218     c11_flightControlSystem.obj
 0003:00003220       $SG26367                   000000018001d220     c11_flightControlSystem.obj
 0003:00003264       $SG26476                   000000018001d264     c11_flightControlSystem.obj
 0003:00003268       $SG26406                   000000018001d268     c11_flightControlSystem.obj
 0003:00003270       $SG26370                   000000018001d270     c11_flightControlSystem.obj
 0003:000032bc       $SG26483                   000000018001d2bc     c11_flightControlSystem.obj
 0003:000032c0       $SG26372                   000000018001d2c0     c11_flightControlSystem.obj
 0003:000032ec       $SG26518                   000000018001d2ec     c11_flightControlSystem.obj
 0003:000032f0       $SG26373                   000000018001d2f0     c11_flightControlSystem.obj
 0003:0000330c       $SG26525                   000000018001d30c     c11_flightControlSystem.obj
 0003:00003310       $SG26375                   000000018001d310     c11_flightControlSystem.obj
 0003:0000333c       $SG26560                   000000018001d33c     c11_flightControlSystem.obj
 0003:00003340       $SG26376                   000000018001d340     c11_flightControlSystem.obj
 0003:0000335c       $SG26567                   000000018001d35c     c11_flightControlSystem.obj
 0003:00003360       $SG26378                   000000018001d360     c11_flightControlSystem.obj
 0003:00003370       $SG26379                   000000018001d370     c11_flightControlSystem.obj
 0003:000033a0       $SG26380                   000000018001d3a0     c11_flightControlSystem.obj
 0003:000033c0       $SG26382                   000000018001d3c0     c11_flightControlSystem.obj
 0003:000033f0       $SG26383                   000000018001d3f0     c11_flightControlSystem.obj
 0003:00003410       $SG26385                   000000018001d410     c11_flightControlSystem.obj
 0003:00003420       $SG26386                   000000018001d420     c11_flightControlSystem.obj
 0003:00003450       $SG26387                   000000018001d450     c11_flightControlSystem.obj
 0003:00003470       $SG26389                   000000018001d470     c11_flightControlSystem.obj
 0003:000034a0       $SG26390                   000000018001d4a0     c11_flightControlSystem.obj
 0003:000034c0       $SG26392                   000000018001d4c0     c11_flightControlSystem.obj
 0003:000034d0       $SG26393                   000000018001d4d0     c11_flightControlSystem.obj
 0003:00003500       $SG26394                   000000018001d500     c11_flightControlSystem.obj
 0003:00003520       $SG26396                   000000018001d520     c11_flightControlSystem.obj
 0003:00003550       $SG26397                   000000018001d550     c11_flightControlSystem.obj
 0003:00003570       $SG26399                   000000018001d570     c11_flightControlSystem.obj
 0003:00003580       $SG26400                   000000018001d580     c11_flightControlSystem.obj
 0003:000035b0       $SG26401                   000000018001d5b0     c11_flightControlSystem.obj
 0003:000035d0       $SG26403                   000000018001d5d0     c11_flightControlSystem.obj
 0003:00003600       $SG26404                   000000018001d600     c11_flightControlSystem.obj
 0003:00003620       $SG26407                   000000018001d620     c11_flightControlSystem.obj
 0003:00003650       $SG26408                   000000018001d650     c11_flightControlSystem.obj
 0003:00003670       $SG26410                   000000018001d670     c11_flightControlSystem.obj
 0003:000036a0       $SG26411                   000000018001d6a0     c11_flightControlSystem.obj
 0003:000036c0       $SG26413                   000000018001d6c0     c11_flightControlSystem.obj
 0003:000036d0       $SG26414                   000000018001d6d0     c11_flightControlSystem.obj
 0003:00003700       $SG26415                   000000018001d700     c11_flightControlSystem.obj
 0003:00003720       $SG26417                   000000018001d720     c11_flightControlSystem.obj
 0003:00003750       $SG26418                   000000018001d750     c11_flightControlSystem.obj
 0003:00003770       $SG26420                   000000018001d770     c11_flightControlSystem.obj
 0003:00003778       $SG26421                   000000018001d778     c11_flightControlSystem.obj
 0003:000037a8       $SG26422                   000000018001d7a8     c11_flightControlSystem.obj
 0003:000037c8       $SG26424                   000000018001d7c8     c11_flightControlSystem.obj
 0003:000037f8       $SG26425                   000000018001d7f8     c11_flightControlSystem.obj
 0003:00003818       $SG26427                   000000018001d818     c11_flightControlSystem.obj
 0003:00003828       $SG26428                   000000018001d828     c11_flightControlSystem.obj
 0003:00003858       $SG26429                   000000018001d858     c11_flightControlSystem.obj
 0003:00003878       $SG26431                   000000018001d878     c11_flightControlSystem.obj
 0003:000038a8       $SG26432                   000000018001d8a8     c11_flightControlSystem.obj
 0003:000038c8       $SG26435                   000000018001d8c8     c11_flightControlSystem.obj
 0003:000038f8       $SG26436                   000000018001d8f8     c11_flightControlSystem.obj
 0003:00003918       $SG26438                   000000018001d918     c11_flightControlSystem.obj
 0003:00003948       $SG26439                   000000018001d948     c11_flightControlSystem.obj
 0003:00003968       $SG26442                   000000018001d968     c11_flightControlSystem.obj
 0003:00003998       $SG26443                   000000018001d998     c11_flightControlSystem.obj
 0003:000039b8       $SG26445                   000000018001d9b8     c11_flightControlSystem.obj
 0003:000039e8       $SG26446                   000000018001d9e8     c11_flightControlSystem.obj
 0003:00003a08       $SG26448                   000000018001da08     c11_flightControlSystem.obj
 0003:00003a10       $SG26449                   000000018001da10     c11_flightControlSystem.obj
 0003:00003a40       $SG26450                   000000018001da40     c11_flightControlSystem.obj
 0003:00003a60       $SG26452                   000000018001da60     c11_flightControlSystem.obj
 0003:00003a90       $SG26453                   000000018001da90     c11_flightControlSystem.obj
 0003:00003ab0       $SG26455                   000000018001dab0     c11_flightControlSystem.obj
 0003:00003ac0       $SG26456                   000000018001dac0     c11_flightControlSystem.obj
 0003:00003af0       $SG26457                   000000018001daf0     c11_flightControlSystem.obj
 0003:00003b10       $SG26459                   000000018001db10     c11_flightControlSystem.obj
 0003:00003b40       $SG26460                   000000018001db40     c11_flightControlSystem.obj
 0003:00003b60       $SG26462                   000000018001db60     c11_flightControlSystem.obj
 0003:00003b68       $SG26463                   000000018001db68     c11_flightControlSystem.obj
 0003:00003b98       $SG26464                   000000018001db98     c11_flightControlSystem.obj
 0003:00003bb8       $SG26466                   000000018001dbb8     c11_flightControlSystem.obj
 0003:00003be8       $SG26467                   000000018001dbe8     c11_flightControlSystem.obj
 0003:00003c08       $SG26469                   000000018001dc08     c11_flightControlSystem.obj
 0003:00003c18       $SG26470                   000000018001dc18     c11_flightControlSystem.obj
 0003:00003c48       $SG26471                   000000018001dc48     c11_flightControlSystem.obj
 0003:00003c68       $SG26473                   000000018001dc68     c11_flightControlSystem.obj
 0003:00003c98       $SG26474                   000000018001dc98     c11_flightControlSystem.obj
 0003:00003cb8       $SG26477                   000000018001dcb8     c11_flightControlSystem.obj
 0003:00003ce8       $SG26478                   000000018001dce8     c11_flightControlSystem.obj
 0003:00003d08       $SG26480                   000000018001dd08     c11_flightControlSystem.obj
 0003:00003d38       $SG26481                   000000018001dd38     c11_flightControlSystem.obj
 0003:00003d58       $SG26484                   000000018001dd58     c11_flightControlSystem.obj
 0003:00003d88       $SG26485                   000000018001dd88     c11_flightControlSystem.obj
 0003:00003da8       $SG26487                   000000018001dda8     c11_flightControlSystem.obj
 0003:00003dd8       $SG26488                   000000018001ddd8     c11_flightControlSystem.obj
 0003:00003df8       $SG26490                   000000018001ddf8     c11_flightControlSystem.obj
 0003:00003e00       $SG26491                   000000018001de00     c11_flightControlSystem.obj
 0003:00003e30       $SG26492                   000000018001de30     c11_flightControlSystem.obj
 0003:00003e50       $SG26494                   000000018001de50     c11_flightControlSystem.obj
 0003:00003e80       $SG26495                   000000018001de80     c11_flightControlSystem.obj
 0003:00003ea0       $SG26497                   000000018001dea0     c11_flightControlSystem.obj
 0003:00003eb0       $SG26498                   000000018001deb0     c11_flightControlSystem.obj
 0003:00003ee0       $SG26499                   000000018001dee0     c11_flightControlSystem.obj
 0003:00003f00       $SG26501                   000000018001df00     c11_flightControlSystem.obj
 0003:00003f30       $SG26502                   000000018001df30     c11_flightControlSystem.obj
 0003:00003f50       $SG26504                   000000018001df50     c11_flightControlSystem.obj
 0003:00003f58       $SG26505                   000000018001df58     c11_flightControlSystem.obj
 0003:00003f88       $SG26506                   000000018001df88     c11_flightControlSystem.obj
 0003:00003fa8       $SG26508                   000000018001dfa8     c11_flightControlSystem.obj
 0003:00003fd8       $SG26509                   000000018001dfd8     c11_flightControlSystem.obj
 0003:00003ff8       $SG26511                   000000018001dff8     c11_flightControlSystem.obj
 0003:00004008       $SG26512                   000000018001e008     c11_flightControlSystem.obj
 0003:00004038       $SG26513                   000000018001e038     c11_flightControlSystem.obj
 0003:00004058       $SG26515                   000000018001e058     c11_flightControlSystem.obj
 0003:00004088       $SG26516                   000000018001e088     c11_flightControlSystem.obj
 0003:000040a8       $SG26519                   000000018001e0a8     c11_flightControlSystem.obj
 0003:000040d8       $SG26520                   000000018001e0d8     c11_flightControlSystem.obj
 0003:000040f8       $SG26522                   000000018001e0f8     c11_flightControlSystem.obj
 0003:00004128       $SG26523                   000000018001e128     c11_flightControlSystem.obj
 0003:00004148       $SG26526                   000000018001e148     c11_flightControlSystem.obj
 0003:00004178       $SG26527                   000000018001e178     c11_flightControlSystem.obj
 0003:00004198       $SG26529                   000000018001e198     c11_flightControlSystem.obj
 0003:000041c8       $SG26530                   000000018001e1c8     c11_flightControlSystem.obj
 0003:000041e8       $SG26532                   000000018001e1e8     c11_flightControlSystem.obj
 0003:000041f0       $SG26533                   000000018001e1f0     c11_flightControlSystem.obj
 0003:00004220       $SG26534                   000000018001e220     c11_flightControlSystem.obj
 0003:00004240       $SG26536                   000000018001e240     c11_flightControlSystem.obj
 0003:00004270       $SG26537                   000000018001e270     c11_flightControlSystem.obj
 0003:00004290       $SG26539                   000000018001e290     c11_flightControlSystem.obj
 0003:000042a0       $SG26540                   000000018001e2a0     c11_flightControlSystem.obj
 0003:000042d0       $SG26541                   000000018001e2d0     c11_flightControlSystem.obj
 0003:000042f0       $SG26543                   000000018001e2f0     c11_flightControlSystem.obj
 0003:00004320       $SG26544                   000000018001e320     c11_flightControlSystem.obj
 0003:00004340       $SG26546                   000000018001e340     c11_flightControlSystem.obj
 0003:00004348       $SG26547                   000000018001e348     c11_flightControlSystem.obj
 0003:00004378       $SG26548                   000000018001e378     c11_flightControlSystem.obj
 0003:00004398       $SG26550                   000000018001e398     c11_flightControlSystem.obj
 0003:000043c8       $SG26551                   000000018001e3c8     c11_flightControlSystem.obj
 0003:000043e8       $SG26553                   000000018001e3e8     c11_flightControlSystem.obj
 0003:000043f8       $SG26554                   000000018001e3f8     c11_flightControlSystem.obj
 0003:00004428       $SG26555                   000000018001e428     c11_flightControlSystem.obj
 0003:00004448       $SG26557                   000000018001e448     c11_flightControlSystem.obj
 0003:00004478       $SG26558                   000000018001e478     c11_flightControlSystem.obj
 0003:00004498       $SG26561                   000000018001e498     c11_flightControlSystem.obj
 0003:000044c8       $SG26562                   000000018001e4c8     c11_flightControlSystem.obj
 0003:000044e8       $SG26564                   000000018001e4e8     c11_flightControlSystem.obj
 0003:00004518       $SG26565                   000000018001e518     c11_flightControlSystem.obj
 0003:00004538       $SG26568                   000000018001e538     c11_flightControlSystem.obj
 0003:00004568       $SG26569                   000000018001e568     c11_flightControlSystem.obj
 0003:00004588       $SG26571                   000000018001e588     c11_flightControlSystem.obj
 0003:000045b8       $SG26572                   000000018001e5b8     c11_flightControlSystem.obj
 0003:000045d8       c11_emlrtRTEI              000000018001e5d8     c11_flightControlSystem.obj
 0003:000045f0       c11_b_emlrtRTEI            000000018001e5f0     c11_flightControlSystem.obj
 0003:00004608       c11_emlrtBCI               000000018001e608     c11_flightControlSystem.obj
 0003:00004638       c11_emlrtDCI               000000018001e638     c11_flightControlSystem.obj
 0003:00004658       c11_b_emlrtBCI             000000018001e658     c11_flightControlSystem.obj
 0003:00004688       c11_b_emlrtDCI             000000018001e688     c11_flightControlSystem.obj
 0003:000046a8       c11_c_emlrtBCI             000000018001e6a8     c11_flightControlSystem.obj
 0003:000046d8       c11_c_emlrtDCI             000000018001e6d8     c11_flightControlSystem.obj
 0003:000046f8       c11_d_emlrtBCI             000000018001e6f8     c11_flightControlSystem.obj
 0003:00004728       c11_d_emlrtDCI             000000018001e728     c11_flightControlSystem.obj
 0003:00004748       c11_e_emlrtBCI             000000018001e748     c11_flightControlSystem.obj
 0003:00004778       c11_e_emlrtDCI             000000018001e778     c11_flightControlSystem.obj
 0003:00004798       c11_f_emlrtBCI             000000018001e798     c11_flightControlSystem.obj
 0003:000047c8       c11_f_emlrtDCI             000000018001e7c8     c11_flightControlSystem.obj
 0003:000047e8       c11_g_emlrtBCI             000000018001e7e8     c11_flightControlSystem.obj
 0003:00004818       c11_g_emlrtDCI             000000018001e818     c11_flightControlSystem.obj
 0003:00004838       c11_h_emlrtBCI             000000018001e838     c11_flightControlSystem.obj
 0003:00004868       c11_h_emlrtDCI             000000018001e868     c11_flightControlSystem.obj
 0003:00004888       c11_i_emlrtBCI             000000018001e888     c11_flightControlSystem.obj
 0003:000048b8       c11_i_emlrtDCI             000000018001e8b8     c11_flightControlSystem.obj
 0003:000048d8       c11_j_emlrtBCI             000000018001e8d8     c11_flightControlSystem.obj
 0003:00004908       c11_j_emlrtDCI             000000018001e908     c11_flightControlSystem.obj
 0003:00004928       c11_k_emlrtBCI             000000018001e928     c11_flightControlSystem.obj
 0003:00004958       c11_k_emlrtDCI             000000018001e958     c11_flightControlSystem.obj
 0003:00004978       c11_l_emlrtBCI             000000018001e978     c11_flightControlSystem.obj
 0003:000049a8       c11_l_emlrtDCI             000000018001e9a8     c11_flightControlSystem.obj
 0003:000049c8       c11_m_emlrtBCI             000000018001e9c8     c11_flightControlSystem.obj
 0003:000049f8       c11_m_emlrtDCI             000000018001e9f8     c11_flightControlSystem.obj
 0003:00004a18       c11_n_emlrtBCI             000000018001ea18     c11_flightControlSystem.obj
 0003:00004a48       c11_n_emlrtDCI             000000018001ea48     c11_flightControlSystem.obj
 0003:00004a68       c11_o_emlrtBCI             000000018001ea68     c11_flightControlSystem.obj
 0003:00004a98       c11_o_emlrtDCI             000000018001ea98     c11_flightControlSystem.obj
 0003:00004ab8       c11_p_emlrtBCI             000000018001eab8     c11_flightControlSystem.obj
 0003:00004ae8       c11_p_emlrtDCI             000000018001eae8     c11_flightControlSystem.obj
 0003:00004b08       c11_q_emlrtBCI             000000018001eb08     c11_flightControlSystem.obj
 0003:00004b38       c11_q_emlrtDCI             000000018001eb38     c11_flightControlSystem.obj
 0003:00004b58       c11_r_emlrtBCI             000000018001eb58     c11_flightControlSystem.obj
 0003:00004b88       c11_r_emlrtDCI             000000018001eb88     c11_flightControlSystem.obj
 0003:00004ba8       c11_s_emlrtBCI             000000018001eba8     c11_flightControlSystem.obj
 0003:00004bd8       c11_s_emlrtDCI             000000018001ebd8     c11_flightControlSystem.obj
 0003:00004bf8       c11_t_emlrtBCI             000000018001ebf8     c11_flightControlSystem.obj
 0003:00004c28       c11_t_emlrtDCI             000000018001ec28     c11_flightControlSystem.obj
 0003:00004c48       c11_u_emlrtBCI             000000018001ec48     c11_flightControlSystem.obj
 0003:00004c78       c11_u_emlrtDCI             000000018001ec78     c11_flightControlSystem.obj
 0003:00004c98       c11_v_emlrtBCI             000000018001ec98     c11_flightControlSystem.obj
 0003:00004cc8       c11_v_emlrtDCI             000000018001ecc8     c11_flightControlSystem.obj
 0003:00004ce8       c11_w_emlrtBCI             000000018001ece8     c11_flightControlSystem.obj
 0003:00004d18       c11_w_emlrtDCI             000000018001ed18     c11_flightControlSystem.obj
 0003:00004d38       c11_x_emlrtBCI             000000018001ed38     c11_flightControlSystem.obj
 0003:00004d68       c11_x_emlrtDCI             000000018001ed68     c11_flightControlSystem.obj
 0003:00004d88       c11_y_emlrtBCI             000000018001ed88     c11_flightControlSystem.obj
 0003:00004db8       c11_y_emlrtDCI             000000018001edb8     c11_flightControlSystem.obj
 0003:00004dd8       c11_ab_emlrtBCI            000000018001edd8     c11_flightControlSystem.obj
 0003:00004e08       c11_ab_emlrtDCI            000000018001ee08     c11_flightControlSystem.obj
 0003:00004e28       c11_bb_emlrtBCI            000000018001ee28     c11_flightControlSystem.obj
 0003:00004e58       c11_bb_emlrtDCI            000000018001ee58     c11_flightControlSystem.obj
 0003:00004e78       c11_cb_emlrtBCI            000000018001ee78     c11_flightControlSystem.obj
 0003:00004ea8       c11_cb_emlrtDCI            000000018001eea8     c11_flightControlSystem.obj
 0003:00004ec8       $SG26678                   000000018001eec8     c11_flightControlSystem.obj
 0003:00004ed8       $SG26679                   000000018001eed8     c11_flightControlSystem.obj
 0003:00004f00       $SG26702                   000000018001ef00     c11_flightControlSystem.obj
 0003:00004f18       $SG27166                   000000018001ef18     c11_flightControlSystem.obj
 0003:00004f20       ?c11_bottom_to_top@?1??sf_gateway_c11_flightControlSystem@@9@9 000000018001ef20     c11_flightControlSystem.obj
 0003:00005218       $SG27167                   000000018001f218     c11_flightControlSystem.obj
 0003:00005220       ?c11_top_to_bottom@?1??sf_gateway_c11_flightControlSystem@@9@9 000000018001f220     c11_flightControlSystem.obj
 0003:00005518       $SG27213                   000000018001f518     c11_flightControlSystem.obj
 0003:0000551c       $SG27214                   000000018001f51c     c11_flightControlSystem.obj
 0003:00005520       $SG27215                   000000018001f520     c11_flightControlSystem.obj
 0003:00005524       $SG27216                   000000018001f524     c11_flightControlSystem.obj
 0003:00005528       $SG27217                   000000018001f528     c11_flightControlSystem.obj
 0003:0000552c       $SG27218                   000000018001f52c     c11_flightControlSystem.obj
 0003:00005530       $SG27219                   000000018001f530     c11_flightControlSystem.obj
 0003:00005534       $SG27220                   000000018001f534     c11_flightControlSystem.obj
 0003:00005538       $SG27267                   000000018001f538     c11_flightControlSystem.obj
 0003:0000553c       $SG27268                   000000018001f53c     c11_flightControlSystem.obj
 0003:00005540       $SG27269                   000000018001f540     c11_flightControlSystem.obj
 0003:00005544       $SG27270                   000000018001f544     c11_flightControlSystem.obj
 0003:00005548       $SG27271                   000000018001f548     c11_flightControlSystem.obj
 0003:0000554c       $SG27272                   000000018001f54c     c11_flightControlSystem.obj
 0003:00005550       $SG27273                   000000018001f550     c11_flightControlSystem.obj
 0003:00005554       $SG27274                   000000018001f554     c11_flightControlSystem.obj
 0003:00005558       $SG27281                   000000018001f558     c11_flightControlSystem.obj
 0003:00005568       $SG27378                   000000018001f568     c11_flightControlSystem.obj
 0003:000055a0       $SG27390                   000000018001f5a0     c11_flightControlSystem.obj
 0003:000055b0       $SG27392                   000000018001f5b0     c11_flightControlSystem.obj
 0003:000055c0       $SG27394                   000000018001f5c0     c11_flightControlSystem.obj
 0003:000055d8       $SG27396                   000000018001f5d8     c11_flightControlSystem.obj
 0003:000055f0       $SG27398                   000000018001f5f0     c11_flightControlSystem.obj
 0003:00005604       $SG27399                   000000018001f604     c11_flightControlSystem.obj
 0003:00005610       $SG27400                   000000018001f610     c11_flightControlSystem.obj
 0003:00005628       $SG27403                   000000018001f628     c11_flightControlSystem.obj
 0003:00005638       $SG27416                   000000018001f638     c11_flightControlSystem.obj
 0003:00005648       $SG27418                   000000018001f648     c11_flightControlSystem.obj
 0003:00005650       $SG27419                   000000018001f650     c11_flightControlSystem.obj
 0003:00005738       $SG27543                   000000018001f738     c11_flightControlSystem.obj
 0003:00005740       $SG27503                   000000018001f740     c11_flightControlSystem.obj
 0003:00005790       $SG27505                   000000018001f790     c11_flightControlSystem.obj
 0003:000057e0       $SG27507                   000000018001f7e0     c11_flightControlSystem.obj
 0003:00005830       $SG27509                   000000018001f830     c11_flightControlSystem.obj
 0003:00005880       $SG27511                   000000018001f880     c11_flightControlSystem.obj
 0003:000058d0       $SG27513                   000000018001f8d0     c11_flightControlSystem.obj
 0003:00005920       $SG27515                   000000018001f920     c11_flightControlSystem.obj
 0003:00005970       $SG27517                   000000018001f970     c11_flightControlSystem.obj
 0003:000059c0       $SG27519                   000000018001f9c0     c11_flightControlSystem.obj
 0003:00005a10       $SG27521                   000000018001fa10     c11_flightControlSystem.obj
 0003:00005a60       $SG27523                   000000018001fa60     c11_flightControlSystem.obj
 0003:00005ab0       $SG27525                   000000018001fab0     c11_flightControlSystem.obj
 0003:00005b00       $SG27527                   000000018001fb00     c11_flightControlSystem.obj
 0003:00005b50       $SG27529                   000000018001fb50     c11_flightControlSystem.obj
 0003:00005ba0       $SG27531                   000000018001fba0     c11_flightControlSystem.obj
 0003:00005bf0       $SG27533                   000000018001fbf0     c11_flightControlSystem.obj
 0003:00005c40       $SG27535                   000000018001fc40     c11_flightControlSystem.obj
 0003:00005c90       $SG27537                   000000018001fc90     c11_flightControlSystem.obj
 0003:00005ce0       $SG27539                   000000018001fce0     c11_flightControlSystem.obj
 0003:00005d30       $SG27541                   000000018001fd30     c11_flightControlSystem.obj
 0003:00005d80       $SG27556                   000000018001fd80     c11_flightControlSystem.obj
 0003:00005d90       $SG27557                   000000018001fd90     c11_flightControlSystem.obj
 0003:00005da8       $SG27579                   000000018001fda8     c11_flightControlSystem.obj
 0003:00005de0       $SG27594                   000000018001fde0     c11_flightControlSystem.obj
 0003:00005e58       $SG26359                   000000018001fe58     flightControlSystem_sfun_registry.obj
 0003:00005e78       $SG26361                   000000018001fe78     flightControlSystem_sfun_registry.obj
 0003:00005e8c       $SG28535                   000000018001fe8c     flightControlSystem_sfun_registry.obj
 0003:00005e90       $SG26397                   000000018001fe90     flightControlSystem_sfun_registry.obj
 0003:00005ea8       $SG26399                   000000018001fea8     flightControlSystem_sfun_registry.obj
 0003:00005ebc       $SG28616                   000000018001febc     flightControlSystem_sfun_registry.obj
 0003:00005ec0       $SG26435                   000000018001fec0     flightControlSystem_sfun_registry.obj
 0003:00005ed8       $SG26437                   000000018001fed8     flightControlSystem_sfun_registry.obj
 0003:00005ef0       $SG26473                   000000018001fef0     flightControlSystem_sfun_registry.obj
 0003:00005f10       $SG26475                   000000018001ff10     flightControlSystem_sfun_registry.obj
 0003:00005f28       $SG26511                   000000018001ff28     flightControlSystem_sfun_registry.obj
 0003:00005f48       $SG26513                   000000018001ff48     flightControlSystem_sfun_registry.obj
 0003:00005f60       $SG26533                   000000018001ff60     flightControlSystem_sfun_registry.obj
 0003:00005f70       $SG26551                   000000018001ff70     flightControlSystem_sfun_registry.obj
 0003:00005f88       $SG26582                   000000018001ff88     flightControlSystem_sfun_registry.obj
 0003:00005f9c       $SG26671                   000000018001ff9c     flightControlSystem_sfun_registry.obj
 0003:00005fa8       $SG26672                   000000018001ffa8     flightControlSystem_sfun_registry.obj
 0003:00005fbc       $SG26677                   000000018001ffbc     flightControlSystem_sfun_registry.obj
 0003:00005fc8       $SG26678                   000000018001ffc8     flightControlSystem_sfun_registry.obj
 0003:00005fe8       $SG26820                   000000018001ffe8     flightControlSystem_sfun_registry.obj
 0003:00006010       _sfcnName                  0000000180020010     flightControlSystem_sfun_registry.obj
 0003:00006030       $SG26837                   0000000180020030     flightControlSystem_sfun_registry.obj
 0003:000060a8       $SG27241                   00000001800200a8     flightControlSystem_sfun_registry.obj
 0003:000060b0       $SG27242                   00000001800200b0     flightControlSystem_sfun_registry.obj
 0003:000060b8       $SG27256                   00000001800200b8     flightControlSystem_sfun_registry.obj
 0003:000060c8       $SG27446                   00000001800200c8     flightControlSystem_sfun_registry.obj
 0003:00006108       $SG27447                   0000000180020108     flightControlSystem_sfun_registry.obj
 0003:00006118       $SG27448                   0000000180020118     flightControlSystem_sfun_registry.obj
 0003:00006120       $SG27452                   0000000180020120     flightControlSystem_sfun_registry.obj
 0003:00006168       $SG27453                   0000000180020168     flightControlSystem_sfun_registry.obj
 0003:00006178       $SG27454                   0000000180020178     flightControlSystem_sfun_registry.obj
 0003:00006180       $SG27455                   0000000180020180     flightControlSystem_sfun_registry.obj
 0003:000061d8       $SG27456                   00000001800201d8     flightControlSystem_sfun_registry.obj
 0003:000061e8       $SG27457                   00000001800201e8     flightControlSystem_sfun_registry.obj
 0003:000061f0       $SG27479                   00000001800201f0     flightControlSystem_sfun_registry.obj
 0003:00006230       $SG27480                   0000000180020230     flightControlSystem_sfun_registry.obj
 0003:00006240       $SG27481                   0000000180020240     flightControlSystem_sfun_registry.obj
 0003:00006248       $SG27487                   0000000180020248     flightControlSystem_sfun_registry.obj
 0003:00006250       $SG27485                   0000000180020250     flightControlSystem_sfun_registry.obj
 0003:00006298       $SG27486                   0000000180020298     flightControlSystem_sfun_registry.obj
 0003:000062a8       $SG27490                   00000001800202a8     flightControlSystem_sfun_registry.obj
 0003:000062b0       $SG27488                   00000001800202b0     flightControlSystem_sfun_registry.obj
 0003:00006308       $SG27489                   0000000180020308     flightControlSystem_sfun_registry.obj
 0003:00006318       $SG27516                   0000000180020318     flightControlSystem_sfun_registry.obj
 0003:00006320       $SG27514                   0000000180020320     flightControlSystem_sfun_registry.obj
 0003:00006370       $SG27515                   0000000180020370     flightControlSystem_sfun_registry.obj
 0003:00006380       $SG27528                   0000000180020380     flightControlSystem_sfun_registry.obj
 0003:000063e0       $SG27529                   00000001800203e0     flightControlSystem_sfun_registry.obj
 0003:000063e8       $SG27530                   00000001800203e8     flightControlSystem_sfun_registry.obj
 0003:000063f0       $SG27542                   00000001800203f0     flightControlSystem_sfun_registry.obj
 0003:00006450       $SG27543                   0000000180020450     flightControlSystem_sfun_registry.obj
 0003:00006458       $SG27544                   0000000180020458     flightControlSystem_sfun_registry.obj
 0003:00006460       $SG27897                   0000000180020460     flightControlSystem_sfun_registry.obj
 0003:000064d8       $SG28519                   00000001800204d8     flightControlSystem_sfun_registry.obj
 0003:000064f0       $SG27900                   00000001800204f0     flightControlSystem_sfun_registry.obj
 0003:00006564       $SG28590                   0000000180020564     flightControlSystem_sfun_registry.obj
 0003:00006570       $SG27905                   0000000180020570     flightControlSystem_sfun_registry.obj
 0003:000065e8       $SG28591                   00000001800205e8     flightControlSystem_sfun_registry.obj
 0003:000065f0       $SG27913                   00000001800205f0     flightControlSystem_sfun_registry.obj
 0003:00006660       $SG28188                   0000000180020660     flightControlSystem_sfun_registry.obj
 0003:000066d8       $SG28592                   00000001800206d8     flightControlSystem_sfun_registry.obj
 0003:000066e0       $SG28193                   00000001800206e0     flightControlSystem_sfun_registry.obj
 0003:00006758       $SG28598                   0000000180020758     flightControlSystem_sfun_registry.obj
 0003:00006760       $SG28532                   0000000180020760     flightControlSystem_sfun_registry.obj
 0003:000067d8       $SG28601                   00000001800207d8     flightControlSystem_sfun_registry.obj
 0003:000067e0       $SG28593                   00000001800207e0     flightControlSystem_sfun_registry.obj
 0003:00006858       $SG28604                   0000000180020858     flightControlSystem_sfun_registry.obj
 0003:00006860       $SG28595                   0000000180020860     flightControlSystem_sfun_registry.obj
 0003:000068e0       $SG28605                   00000001800208e0     flightControlSystem_sfun_registry.obj
 0003:00006960       $SG28606                   0000000180020960     flightControlSystem_sfun_registry.obj
 0003:00006970       $SG28608                   0000000180020970     flightControlSystem_sfun_registry.obj
 0003:0000697c       $SG28610                   000000018002097c     flightControlSystem_sfun_registry.obj
 0003:00006984       $SG28612                   0000000180020984     flightControlSystem_sfun_registry.obj
 0003:00006990       $SG28614                   0000000180020990     flightControlSystem_sfun_registry.obj
 0003:000069a0       $SG28619                   00000001800209a0     flightControlSystem_sfun_registry.obj
 0003:00006a88       $SG28737                   0000000180020a88     flightControlSystem_sfun_registry.obj
 0003:00006ab8       $SG28738                   0000000180020ab8     flightControlSystem_sfun_registry.obj
 0003:00006ac8       $SG28739                   0000000180020ac8     flightControlSystem_sfun_registry.obj
 0003:00006ad0       $SG28741                   0000000180020ad0     flightControlSystem_sfun_registry.obj
 0003:00006b08       $SG28742                   0000000180020b08     flightControlSystem_sfun_registry.obj
 0003:00006b18       $SG28743                   0000000180020b18     flightControlSystem_sfun_registry.obj
 0003:00006b20       $SG28746                   0000000180020b20     flightControlSystem_sfun_registry.obj
 0003:00006b58       $SG28747                   0000000180020b58     flightControlSystem_sfun_registry.obj
 0003:00006b68       $SG28748                   0000000180020b68     flightControlSystem_sfun_registry.obj
 0003:00006b70       $SG28750                   0000000180020b70     flightControlSystem_sfun_registry.obj
 0003:00006ba8       $SG28751                   0000000180020ba8     flightControlSystem_sfun_registry.obj
 0003:00006bb8       $SG28752                   0000000180020bb8     flightControlSystem_sfun_registry.obj
 0003:00006bc0       $SG28754                   0000000180020bc0     flightControlSystem_sfun_registry.obj
 0003:00006bf8       $SG28755                   0000000180020bf8     flightControlSystem_sfun_registry.obj
 0003:00006c08       $SG28756                   0000000180020c08     flightControlSystem_sfun_registry.obj
 0003:00006c10       $SG28759                   0000000180020c10     flightControlSystem_sfun_registry.obj
 0003:00006c18       $SG28761                   0000000180020c18     flightControlSystem_sfun_registry.obj
 0003:00006c30       $SG28762                   0000000180020c30     flightControlSystem_sfun_registry.obj
 0003:00006c68       $SG28763                   0000000180020c68     flightControlSystem_sfun_registry.obj
 0003:00006c78       $SG28764                   0000000180020c78     flightControlSystem_sfun_registry.obj
 0003:00006c80       $SG28934                   0000000180020c80     flightControlSystem_sfun_registry.obj
 0003:00006ca0       $SG28935                   0000000180020ca0     flightControlSystem_sfun_registry.obj
 0003:00006d30       $SG28941                   0000000180020d30     flightControlSystem_sfun_registry.obj
 0003:00006d48       $SG28948                   0000000180020d48     flightControlSystem_sfun_registry.obj
 0003:00006d60       $SG28942                   0000000180020d60     flightControlSystem_sfun_registry.obj
 0003:00006df0       $SG28949                   0000000180020df0     flightControlSystem_sfun_registry.obj
 0003:00006e80       $SG28955                   0000000180020e80     flightControlSystem_sfun_registry.obj
 0003:00006ea0       $SG28956                   0000000180020ea0     flightControlSystem_sfun_registry.obj
 0003:00006f30       $SG28962                   0000000180020f30     flightControlSystem_sfun_registry.obj
 0003:00006f50       $SG28963                   0000000180020f50     flightControlSystem_sfun_registry.obj
 0003:00006fe0       $SG28967                   0000000180020fe0     flightControlSystem_sfun_registry.obj
 0003:00007000       $SG28968                   0000000180021000     flightControlSystem_sfun_registry.obj
 0003:00007090       $SG28972                   0000000180021090     flightControlSystem_sfun_registry.obj
 0003:000070b8       $SG28977                   00000001800210b8     flightControlSystem_sfun_registry.obj
 0003:000070e0       $SG28973                   00000001800210e0     flightControlSystem_sfun_registry.obj
 0003:00007170       $SG28978                   0000000180021170     flightControlSystem_sfun_registry.obj
 0003:00007200       $SG28982                   0000000180021200     flightControlSystem_sfun_registry.obj
 0003:00007220       $SG28983                   0000000180021220     flightControlSystem_sfun_registry.obj
 0003:000072b0       $SG28987                   00000001800212b0     flightControlSystem_sfun_registry.obj
 0003:000072d0       $SG28988                   00000001800212d0     flightControlSystem_sfun_registry.obj
 0003:00007360       $SG28992                   0000000180021360     flightControlSystem_sfun_registry.obj
 0003:00007378       $SG29028                   0000000180021378     flightControlSystem_sfun_registry.obj
 0003:00007390       $SG28993                   0000000180021390     flightControlSystem_sfun_registry.obj
 0003:00007420       $SG28997                   0000000180021420     flightControlSystem_sfun_registry.obj
 0003:00007440       $SG28998                   0000000180021440     flightControlSystem_sfun_registry.obj
 0003:000074d0       $SG29002                   00000001800214d0     flightControlSystem_sfun_registry.obj
 0003:000074f0       $SG29003                   00000001800214f0     flightControlSystem_sfun_registry.obj
 0003:00007580       $SG29007                   0000000180021580     flightControlSystem_sfun_registry.obj
 0003:000075a0       $SG29008                   00000001800215a0     flightControlSystem_sfun_registry.obj
 0003:00007630       $SG29012                   0000000180021630     flightControlSystem_sfun_registry.obj
 0003:00007650       $SG29013                   0000000180021650     flightControlSystem_sfun_registry.obj
 0003:000076e0       $SG29017                   00000001800216e0     flightControlSystem_sfun_registry.obj
 0003:00007700       $SG29018                   0000000180021700     flightControlSystem_sfun_registry.obj
 0003:00007790       $SG29022                   0000000180021790     flightControlSystem_sfun_registry.obj
 0003:000077b0       $SG29023                   00000001800217b0     flightControlSystem_sfun_registry.obj
 0003:00007840       $SG29029                   0000000180021840     flightControlSystem_sfun_registry.obj
 0003:000078d0       $SG29034                   00000001800218d0     flightControlSystem_sfun_registry.obj
 0003:000078d8       $SG29039                   00000001800218d8     flightControlSystem_sfun_registry.obj
 0003:000078f0       $SG29035                   00000001800218f0     flightControlSystem_sfun_registry.obj
 0003:00007980       $SG29040                   0000000180021980     flightControlSystem_sfun_registry.obj
 0003:00007a10       $SG29044                   0000000180021a10     flightControlSystem_sfun_registry.obj
 0003:00007a20       $SG29045                   0000000180021a20     flightControlSystem_sfun_registry.obj
 0003:00007ab0       $SG29049                   0000000180021ab0     flightControlSystem_sfun_registry.obj
 0003:00007ad0       $SG29050                   0000000180021ad0     flightControlSystem_sfun_registry.obj
 0003:00007b60       $SG29054                   0000000180021b60     flightControlSystem_sfun_registry.obj
 0003:00007b80       $SG29055                   0000000180021b80     flightControlSystem_sfun_registry.obj
 0003:00007c10       $SG29059                   0000000180021c10     flightControlSystem_sfun_registry.obj
 0003:00007c20       $SG29060                   0000000180021c20     flightControlSystem_sfun_registry.obj
 0003:00007cb0       $SG29064                   0000000180021cb0     flightControlSystem_sfun_registry.obj
 0003:00007cc0       $SG29065                   0000000180021cc0     flightControlSystem_sfun_registry.obj
 0003:00007d50       $SG29069                   0000000180021d50     flightControlSystem_sfun_registry.obj
 0003:00007d68       $SG29074                   0000000180021d68     flightControlSystem_sfun_registry.obj
 0003:00007d80       $SG29070                   0000000180021d80     flightControlSystem_sfun_registry.obj
 0003:00007e10       $SG29075                   0000000180021e10     flightControlSystem_sfun_registry.obj
 0003:00007ea0       $SG29079                   0000000180021ea0     flightControlSystem_sfun_registry.obj
 0003:00007eb0       $SG29080                   0000000180021eb0     flightControlSystem_sfun_registry.obj
 0003:00007f40       $SG29088                   0000000180021f40     flightControlSystem_sfun_registry.obj
 0003:00007f50       $SG29089                   0000000180021f50     flightControlSystem_sfun_registry.obj
 0003:00007fe0       $SG29095                   0000000180021fe0     flightControlSystem_sfun_registry.obj
 0003:00007ff0       $SG29096                   0000000180021ff0     flightControlSystem_sfun_registry.obj
 0003:00008080       $SG29100                   0000000180022080     flightControlSystem_sfun_registry.obj
 0003:00008090       $SG29101                   0000000180022090     flightControlSystem_sfun_registry.obj
 0003:00008120       $SG29106                   0000000180022120     flightControlSystem_sfun_registry.obj
 0003:00008130       $SG29107                   0000000180022130     flightControlSystem_sfun_registry.obj
 0003:000081c0       $SG29111                   00000001800221c0     flightControlSystem_sfun_registry.obj
 0003:00008238       $SG29154                   0000000180022238     flightControlSystem_sfun_registry.obj
 0003:00008248       $SG29235                   0000000180022248     flightControlSystem_sfun_registry.obj
 0003:00008250       $SG29141                   0000000180022250     flightControlSystem_sfun_registry.obj
 0003:00008368       $SG29165                   0000000180022368     flightControlSystem_sfun_registry.obj
 0003:00008378       $SG29178                   0000000180022378     flightControlSystem_sfun_registry.obj
 0003:00008388       $SG29189                   0000000180022388     flightControlSystem_sfun_registry.obj
 0003:00008398       $SG29202                   0000000180022398     flightControlSystem_sfun_registry.obj
 0003:000083a8       $SG29213                   00000001800223a8     flightControlSystem_sfun_registry.obj
 0003:000083b8       $SG29223                   00000001800223b8     flightControlSystem_sfun_registry.obj
 0003:000083d8       $SG29234                   00000001800223d8     flightControlSystem_sfun_registry.obj
 0003:00008408       $SG29236                   0000000180022408     flightControlSystem_sfun_registry.obj
 0003:00008410       $SG29247                   0000000180022410     flightControlSystem_sfun_registry.obj
 0003:00008448       $SG29248                   0000000180022448     flightControlSystem_sfun_registry.obj
 0003:00008450       $SG29249                   0000000180022450     flightControlSystem_sfun_registry.obj
 0003:000084b0       sRtwOptimizationInfoStruct 00000001800224b0     flightControlSystem_sfun.obj
 0003:000084b8       sOptimizationInfoFlags     00000001800224b8     flightControlSystem_sfun.obj
 0003:000084c0       $SG26480                   00000001800224c0     c4_flightControlSystem.obj
 0003:000084c1       $SG26487                   00000001800224c1     c4_flightControlSystem.obj
 0003:000084c2       $SG26494                   00000001800224c2     c4_flightControlSystem.obj
 0003:000084c3       $SG26501                   00000001800224c3     c4_flightControlSystem.obj
 0003:000084c4       $SG26508                   00000001800224c4     c4_flightControlSystem.obj
 0003:000084c5       $SG26515                   00000001800224c5     c4_flightControlSystem.obj
 0003:000084c6       $SG26522                   00000001800224c6     c4_flightControlSystem.obj
 0003:000084c7       $SG26529                   00000001800224c7     c4_flightControlSystem.obj
 0003:000084c8       $SG26536                   00000001800224c8     c4_flightControlSystem.obj
 0003:000084c9       $SG26543                   00000001800224c9     c4_flightControlSystem.obj
 0003:000084ca       $SG26550                   00000001800224ca     c4_flightControlSystem.obj
 0003:000084cb       $SG26557                   00000001800224cb     c4_flightControlSystem.obj
 0003:000084cc       $SG26564                   00000001800224cc     c4_flightControlSystem.obj
 0003:000084cd       $SG26571                   00000001800224cd     c4_flightControlSystem.obj
 0003:000084ce       $SG26578                   00000001800224ce     c4_flightControlSystem.obj
 0003:000084cf       $SG26585                   00000001800224cf     c4_flightControlSystem.obj
 0003:000084d0       $SG26592                   00000001800224d0     c4_flightControlSystem.obj
 0003:000084d1       $SG26599                   00000001800224d1     c4_flightControlSystem.obj
 0003:000084d2       $SG26606                   00000001800224d2     c4_flightControlSystem.obj
 0003:000084d3       $SG26613                   00000001800224d3     c4_flightControlSystem.obj
 0003:000084d4       $SG26620                   00000001800224d4     c4_flightControlSystem.obj
 0003:000084d5       $SG26627                   00000001800224d5     c4_flightControlSystem.obj
 0003:000084d6       $SG26634                   00000001800224d6     c4_flightControlSystem.obj
 0003:000084d7       $SG26641                   00000001800224d7     c4_flightControlSystem.obj
 0003:000084d8       $SG26648                   00000001800224d8     c4_flightControlSystem.obj
 0003:000084d9       $SG26655                   00000001800224d9     c4_flightControlSystem.obj
 0003:000084da       $SG26662                   00000001800224da     c4_flightControlSystem.obj
 0003:000084db       $SG26669                   00000001800224db     c4_flightControlSystem.obj
 0003:000084dc       $SG26676                   00000001800224dc     c4_flightControlSystem.obj
 0003:000084dd       $SG26683                   00000001800224dd     c4_flightControlSystem.obj
 0003:000084de       $SG26787                   00000001800224de     c4_flightControlSystem.obj
 0003:000084df       $SG27367                   00000001800224df     c4_flightControlSystem.obj
 0003:000084e0       _sfTime_                   00000001800224e0     c4_flightControlSystem.obj
 0003:000084e8       $SG27368                   00000001800224e8     c4_flightControlSystem.obj
 0003:000084e9       $SG27509                   00000001800224e9     c4_flightControlSystem.obj
 0003:000084f0       ?newstr@?1??sf_c4_flightControlSystem_get_post_codegen_info@@9@9 00000001800224f0     c4_flightControlSystem.obj
 0003:00008a90       _sfTime_                   0000000180022a90     c11_flightControlSystem.obj
 0003:00008a98       $SG26701                   0000000180022a98     c11_flightControlSystem.obj
 0003:00008a99       $SG27401                   0000000180022a99     c11_flightControlSystem.obj
 0003:00008a9a       $SG27402                   0000000180022a9a     c11_flightControlSystem.obj
 0003:00008a9b       $SG27545                   0000000180022a9b     c11_flightControlSystem.obj
 0003:00008aa0       ?newstr@?1??sf_c11_flightControlSystem_get_post_codegen_info@@9@9 0000000180022aa0     c11_flightControlSystem.obj
 0003:00009084       sfGlobalMdlStartCallCounts 0000000180023084     flightControlSystem_sfun_registry.obj
 0003:00009088       $SG28586                   0000000180023088     flightControlSystem_sfun_registry.obj
 0003:0000908a       ?warningGuard@?1??ssGetRootSS@@9@9 000000018002308a     flightControlSystem_sfun_registry.obj
 0003:0000908b       ?warningGuard@?1??ssGetParentSS@@9@9 000000018002308b     flightControlSystem_sfun_registry.obj
 0003:00009090       GS_ExceptionRecord         0000000180023090     MSVCRT:gs_report.obj
 0003:00009130       GS_ContextRecord           0000000180023130     MSVCRT:gs_report.obj
 0003:00009600       ?__proc_attached@@3HA      0000000180023600     MSVCRT:dll_dllmain.obj
 0003:00009640       ?is_initialized_as_dll@@3_NA 0000000180023640     MSVCRT:utility.obj
 0003:00009641       ?module_local_atexit_table_initialized@@3_NA 0000000180023641     MSVCRT:utility.obj
 0003:00009648       ?module_local_atexit_table@@3U_onexit_table_t@@A 0000000180023648     MSVCRT:utility.obj
 0003:00009660       ?module_local_at_quick_exit_table@@3U_onexit_table_t@@A 0000000180023660     MSVCRT:utility.obj
