 HardwareDeploymentTest_sfun

 Timestamp is 67da0935 (Tue Mar 18 20:00:53 2025)

 Preferred load address is 0000000180000000

 Start         Length     Name                   Class
 0001:00000000 000174e0H .text$mn                CODE
 0001:000174e0 00000036H .text$mn$00             CODE
 0001:00017516 00000092H .text$x                 CODE
 0002:00000000 00000478H .idata$5                DATA
 0002:00000478 00000038H .00cfg                  DATA
 0002:000004b0 00000008H .CRT$XCA                DATA
 0002:000004b8 00000008H .CRT$XCZ                DATA
 0002:000004c0 00000008H .CRT$XIA                DATA
 0002:000004c8 00000008H .CRT$XIZ                DATA
 0002:000004d0 00000008H .CRT$XPA                DATA
 0002:000004d8 00000008H .CRT$XPZ                DATA
 0002:000004e0 00000008H .CRT$XTA                DATA
 0002:000004e8 00000008H .CRT$XTZ                DATA
 0002:000004f0 00000000H .gehcont$y              DATA
 0002:000004f0 00000000H .gfids$y                DATA
 0002:000004f0 00000310H .rdata                  DATA
 0002:00000800 00000080H .rdata$CastGuardVftablesA DATA
 0002:00000880 00000080H .rdata$CastGuardVftablesC DATA
 0002:00000900 000001c4H .rdata$voltmd           DATA
 0002:00000ac4 0000027cH .rdata$zzzdbg           DATA
 0002:00000d40 00000008H .rtc$IAA                DATA
 0002:00000d48 00000008H .rtc$IZZ                DATA
 0002:00000d50 00000008H .rtc$TAA                DATA
 0002:00000d58 00000008H .rtc$TZZ                DATA
 0002:00000d60 00000c30H .xdata                  DATA
 0002:00001990 00000088H .edata                  DATA
 0002:00001a18 00000140H .idata$2                DATA
 0002:00001b58 00000018H .idata$3                DATA
 0002:00001b70 00000478H .idata$4                DATA
 0002:00001fe8 00000c20H .idata$6                DATA
 0003:00000000 00009150H .data                   DATA
 0003:00009150 000017d0H .bss                    DATA
 0004:00000000 00000ef4H .pdata                  DATA

  Address         Publics by Value              Rva+Base               Lib:Object

 0000:00000000       __AbsoluteZero             0000000000000000     <absolute>
 0000:00000000       ___safe_se_handler_count   0000000000000000     <absolute>
 0000:00000000       ___safe_se_handler_table   0000000000000000     <absolute>
 0000:00000000       __arm64x_extra_rfe_table   0000000000000000     <absolute>
 0000:00000000       __arm64x_extra_rfe_table_size 0000000000000000     <absolute>
 0000:00000000       __arm64x_native_entrypoint 0000000000000000     <absolute>
 0000:00000000       __arm64x_redirection_metadata 0000000000000000     <absolute>
 0000:00000000       __arm64x_redirection_metadata_count 0000000000000000     <absolute>
 0000:00000000       __dynamic_value_reloc_table 0000000000000000     <absolute>
 0000:00000000       __enclave_config           0000000000000000     <absolute>
 0000:00000000       __guard_check_icall_a64n_fptr 0000000000000000     <absolute>
 0000:00000000       __guard_eh_cont_count      0000000000000000     <absolute>
 0000:00000000       __guard_eh_cont_table      0000000000000000     <absolute>
 0000:00000000       __guard_fids_count         0000000000000000     <absolute>
 0000:00000000       __guard_fids_table         0000000000000000     <absolute>
 0000:00000000       __guard_iat_count          0000000000000000     <absolute>
 0000:00000000       __guard_iat_table          0000000000000000     <absolute>
 0000:00000000       __guard_longjmp_count      0000000000000000     <absolute>
 0000:00000000       __guard_longjmp_table      0000000000000000     <absolute>
 0000:00000000       __hybrid_auxiliary_iat     0000000000000000     <absolute>
 0000:00000000       __hybrid_auxiliary_iat_copy 0000000000000000     <absolute>
 0000:00000000       __hybrid_code_map          0000000000000000     <absolute>
 0000:00000000       __hybrid_code_map_count    0000000000000000     <absolute>
 0000:00000000       __x64_code_ranges_to_entry_points 0000000000000000     <absolute>
 0000:00000000       __x64_code_ranges_to_entry_points_count 0000000000000000     <absolute>
 0000:00000100       __guard_flags              0000000000000100     <absolute>
 0000:00000000       __ImageBase                0000000180000000     <linker-defined>
 0001:00000000       HardwareDeploymentTest_initializer 0000000180001000 f   HardwareDeploymentTest_sfun.obj
 0001:00000010       HardwareDeploymentTest_terminator 0000000180001010 f   HardwareDeploymentTest_sfun.obj
 0001:00000020       load_HardwareDeploymentTest_optimization_info 0000000180001020 f   HardwareDeploymentTest_sfun.obj
 0001:000000d0       unload_HardwareDeploymentTest_optimization_info 00000001800010d0 f   HardwareDeploymentTest_sfun.obj
 0001:00000100       sf_HardwareDeploymentTest_method_dispatcher 0000000180001100 f   HardwareDeploymentTest_sfun.obj
 0001:00000190       sf_HardwareDeploymentTest_process_check_sum_call 0000000180001190 f   HardwareDeploymentTest_sfun.obj
 0001:000006b0       sf_HardwareDeploymentTest_get_eml_resolved_functions_info 00000001800016b0 f   HardwareDeploymentTest_sfun.obj
 0001:00000940       sf_HardwareDeploymentTest_third_party_uses_info 0000000180001940 f   HardwareDeploymentTest_sfun.obj
 0001:00000b80       sf_HardwareDeploymentTest_jit_fallback_info 0000000180001b80 f   HardwareDeploymentTest_sfun.obj
 0001:00000dc0       sf_HardwareDeploymentTest_get_post_codegen_info 0000000180001dc0 f   HardwareDeploymentTest_sfun.obj
 0001:00001030       sf_HardwareDeploymentTest_updateBuildInfo_args_info 0000000180002030 f   HardwareDeploymentTest_sfun.obj
 0001:00001270       sf_c4_HardwareDeploymentTest_get_eml_resolved_functions_info 0000000180002270 f   c4_HardwareDeploymentTest.obj
 0001:000012f0       sf_c4_HardwareDeploymentTest_get_check_sum 00000001800022f0 f   c4_HardwareDeploymentTest.obj
 0001:000013c0       c4_HardwareDeploymentTest_method_dispatcher 00000001800023c0 f   c4_HardwareDeploymentTest.obj
 0001:00004250       sf_c4_HardwareDeploymentTest_third_party_uses_info 0000000180005250 f   c4_HardwareDeploymentTest.obj
 0001:000042c0       sf_c4_HardwareDeploymentTest_jit_fallback_info 00000001800052c0 f   c4_HardwareDeploymentTest.obj
 0001:00004450       sf_c4_HardwareDeploymentTest_updateBuildInfo_args_info 0000000180005450 f   c4_HardwareDeploymentTest.obj
 0001:00004770       sf_c4_HardwareDeploymentTest_get_post_codegen_info 0000000180005770 f   c4_HardwareDeploymentTest.obj
 0001:00004c50       sf_c11_HardwareDeploymentTest_get_eml_resolved_functions_info 0000000180005c50 f   c11_HardwareDeploymentTest.obj
 0001:00004cd0       sf_c11_HardwareDeploymentTest_get_check_sum 0000000180005cd0 f   c11_HardwareDeploymentTest.obj
 0001:00004da0       c11_HardwareDeploymentTest_method_dispatcher 0000000180005da0 f   c11_HardwareDeploymentTest.obj
 0001:00006b80       sf_c11_HardwareDeploymentTest_third_party_uses_info 0000000180007b80 f   c11_HardwareDeploymentTest.obj
 0001:00006bd0       sf_c11_HardwareDeploymentTest_jit_fallback_info 0000000180007bd0 f   c11_HardwareDeploymentTest.obj
 0001:00006d60       sf_c11_HardwareDeploymentTest_updateBuildInfo_args_info 0000000180007d60 f   c11_HardwareDeploymentTest.obj
 0001:00007080       sf_c11_HardwareDeploymentTest_get_post_codegen_info 0000000180008080 f   c11_HardwareDeploymentTest.obj
 0001:00007570       sf_c14_HardwareDeploymentTest_get_eml_resolved_functions_info 0000000180008570 f   c14_HardwareDeploymentTest.obj
 0001:000075f0       sf_c14_HardwareDeploymentTest_get_check_sum 00000001800085f0 f   c14_HardwareDeploymentTest.obj
 0001:000076c0       c14_HardwareDeploymentTest_method_dispatcher 00000001800086c0 f   c14_HardwareDeploymentTest.obj
 0001:0000a570       sf_c14_HardwareDeploymentTest_third_party_uses_info 000000018000b570 f   c14_HardwareDeploymentTest.obj
 0001:0000a5c0       sf_c14_HardwareDeploymentTest_jit_fallback_info 000000018000b5c0 f   c14_HardwareDeploymentTest.obj
 0001:0000a750       sf_c14_HardwareDeploymentTest_updateBuildInfo_args_info 000000018000b750 f   c14_HardwareDeploymentTest.obj
 0001:0000aa70       sf_c14_HardwareDeploymentTest_get_post_codegen_info 000000018000ba70 f   c14_HardwareDeploymentTest.obj
 0001:0000af50       mexFunction                000000018000bf50 f   HardwareDeploymentTest_sfun_registry.obj
 0001:0000d820       _ssSetInputPortDirectFeedThroughFcn 000000018000e820 f   HardwareDeploymentTest_sfun_registry.obj
 0001:0000d990       _ssSetRWorkValueFcn        000000018000e990 f   HardwareDeploymentTest_sfun_registry.obj
 0001:0000da10       _ssGetRWorkValueFcn        000000018000ea10 f   HardwareDeploymentTest_sfun_registry.obj
 0001:0000da80       _ssSetIWorkValueFcn        000000018000ea80 f   HardwareDeploymentTest_sfun_registry.obj
 0001:0000db00       _ssGetIWorkValueFcn        000000018000eb00 f   HardwareDeploymentTest_sfun_registry.obj
 0001:0000db70       _ssSetPWorkValueFcn        000000018000eb70 f   HardwareDeploymentTest_sfun_registry.obj
 0001:0000dbf0       _ssGetPWorkValueFcn        000000018000ebf0 f   HardwareDeploymentTest_sfun_registry.obj
 0001:0000dc60       _ssGetInputPortSignalFcn   000000018000ec60 f   HardwareDeploymentTest_sfun_registry.obj
 0001:0000dff0       _ssGetInputPortBufferDstPortFcn 000000018000eff0 f   HardwareDeploymentTest_sfun_registry.obj
 0001:0000e070       _ssGetInputPortSignalPtrsFcn 000000018000f070 f   HardwareDeploymentTest_sfun_registry.obj
 0001:0000e400       ssGetParameterTuningCompliance 000000018000f400 f   HardwareDeploymentTest_sfun_registry.obj
 0001:0000e470       _ssReadInputStringFcn      000000018000f470 f   HardwareDeploymentTest_sfun_registry.obj
 0001:0000e4e0       ssGetDTypeIdFromMxArray    000000018000f4e0 f   HardwareDeploymentTest_sfun_registry.obj
 0001:0000e600       ssWriteRTWMx2dMatParam     000000018000f600 f   HardwareDeploymentTest_sfun_registry.obj
 0001:0000e690       ssWriteRTWMxVectParam      000000018000f690 f   HardwareDeploymentTest_sfun_registry.obj
 0001:0000e710       ssWriteRTWParameters       000000018000f710 f   HardwareDeploymentTest_sfun_registry.obj
 0001:0000ecd0       ssWriteRTWParamSettings    000000018000fcd0 f   HardwareDeploymentTest_sfun_registry.obj
 0001:0000f3c0       ssWriteRTWStr              00000001800103c0 f   HardwareDeploymentTest_sfun_registry.obj
 0001:0000f420       ssWriteRTWWorkVect         0000000180010420 f   HardwareDeploymentTest_sfun_registry.obj
 0001:0000f980       ssWarning                  0000000180010980 f   HardwareDeploymentTest_sfun_registry.obj
 0001:0000fa70       ssGetRootSS                0000000180010a70 f   HardwareDeploymentTest_sfun_registry.obj
 0001:0000fb30       ssGetParentSS              0000000180010b30 f   HardwareDeploymentTest_sfun_registry.obj
 0001:0000fbf0       ssWriteRTWNameValuePair    0000000180010bf0 f   HardwareDeploymentTest_sfun_registry.obj
 0001:000100f0       _ssSetInputPortMatrixDimensions 00000001800110f0 f   HardwareDeploymentTest_sfun_registry.obj
 0001:00010240       _ssSetOutputPortMatrixDimensions 0000000180011240 f   HardwareDeploymentTest_sfun_registry.obj
 0001:00010390       _ssSetInputPortVectorDimension 0000000180011390 f   HardwareDeploymentTest_sfun_registry.obj
 0001:00010440       _ssSetOutputPortVectorDimension 0000000180011440 f   HardwareDeploymentTest_sfun_registry.obj
 0001:000104f0       ssIsRunTimeParamTunable    00000001800114f0 f   HardwareDeploymentTest_sfun_registry.obj
 0001:00010560       ssGetSFuncBlockHandle      0000000180011560 f   HardwareDeploymentTest_sfun_registry.obj
 0001:000105d0       _ssGetCallSystemNumFcnCallDestinations 00000001800115d0 f   HardwareDeploymentTest_sfun_registry.obj
 0001:00010640       _ssGetCurrentInputPortWidth 0000000180011640 f   HardwareDeploymentTest_sfun_registry.obj
 0001:00010780       _ssGetCurrentOutputPortWidth 0000000180011780 f   HardwareDeploymentTest_sfun_registry.obj
 0001:000108c0       ssGetIsZeroCrossControlDisabled 00000001800118c0 f   HardwareDeploymentTest_sfun_registry.obj
 0001:00010930       ssSetIsInputPortUsedForContZcSignal 0000000180011930 f   HardwareDeploymentTest_sfun_registry.obj
 0001:000109a0       ssSetZcSignalIsZcElementDisc 00000001800119a0 f   HardwareDeploymentTest_sfun_registry.obj
 0001:00010a50       ssSetZcSignalName          0000000180011a50 f   HardwareDeploymentTest_sfun_registry.obj
 0001:00010ac0       ssSetZcSignalWidth         0000000180011ac0 f   HardwareDeploymentTest_sfun_registry.obj
 0001:00010b30       ssSetZcSignalZcEventType   0000000180011b30 f   HardwareDeploymentTest_sfun_registry.obj
 0001:00010ba0       ssSetZcSignalType          0000000180011ba0 f   HardwareDeploymentTest_sfun_registry.obj
 0001:00010c10       ssSetZcSignalZcTol         0000000180011c10 f   HardwareDeploymentTest_sfun_registry.obj
 0001:00010c80       ssSetZcSignalNeedsEventNotification 0000000180011c80 f   HardwareDeploymentTest_sfun_registry.obj
 0001:00010cf0       ssCreateAndAddZcSignalInfo 0000000180011cf0 f   HardwareDeploymentTest_sfun_registry.obj
 0001:00010d60       ssCloneAndAddZcSignalInfo  0000000180011d60 f   HardwareDeploymentTest_sfun_registry.obj
 0001:00010dd0       ssGetNumZcSignals          0000000180011dd0 f   HardwareDeploymentTest_sfun_registry.obj
 0001:00010e40       ssGetZcSignalVector        0000000180011e40 f   HardwareDeploymentTest_sfun_registry.obj
 0001:00010eb0       ssGetZcSignalName          0000000180011eb0 f   HardwareDeploymentTest_sfun_registry.obj
 0001:00010f20       ssGetZcSignalWidth         0000000180011f20 f   HardwareDeploymentTest_sfun_registry.obj
 0001:00010f90       ssGetZcSignalZcEventType   0000000180011f90 f   HardwareDeploymentTest_sfun_registry.obj
 0001:00011000       ssGetZcSignalZcEvents      0000000180012000 f   HardwareDeploymentTest_sfun_registry.obj
 0001:00011070       ssGetZcSignalType          0000000180012070 f   HardwareDeploymentTest_sfun_registry.obj
 0001:000110e0       ssGetZcSignalZcTol         00000001800120e0 f   HardwareDeploymentTest_sfun_registry.obj
 0001:00011160       ssGetZcSignalNeedsEventNotification 0000000180012160 f   HardwareDeploymentTest_sfun_registry.obj
 0001:000111d0       ssGetZcSignalIsZcElementDisc 00000001800121d0 f   HardwareDeploymentTest_sfun_registry.obj
 0001:00011270       ssGetIsInputPortElementContinuous 0000000180012270 f   HardwareDeploymentTest_sfun_registry.obj
 0001:00011310       _ssGetAbsTol               0000000180012310 f   HardwareDeploymentTest_sfun_registry.obj
 0001:00011380       _ssSetStateAbsTol          0000000180012380 f   HardwareDeploymentTest_sfun_registry.obj
 0001:00011460       _ssSetInputPortReusableFcn 0000000180012460 f   HardwareDeploymentTest_sfun_registry.obj
 0001:00011560       _ssSetOutputPortReusableFcn 0000000180012560 f   HardwareDeploymentTest_sfun_registry.obj
 0001:00011660       _ssSetSymbolicDimsSupport  0000000180012660 f   HardwareDeploymentTest_sfun_registry.obj
 0001:000116d0       _ssRegisterSymbolicDimsExpr 00000001800126d0 f   HardwareDeploymentTest_sfun_registry.obj
 0001:00011750       _ssRegisterSymbolicDimsMATLABExpr 0000000180012750 f   HardwareDeploymentTest_sfun_registry.obj
 0001:000117e0       _ssRegisterSymbolicDims    00000001800127e0 f   HardwareDeploymentTest_sfun_registry.obj
 0001:00011880       _ssRegisterSymbolicDimsString 0000000180012880 f   HardwareDeploymentTest_sfun_registry.obj
 0001:00011900       _ssRegisterSymbolicDimsIntValue 0000000180012900 f   HardwareDeploymentTest_sfun_registry.obj
 0001:00011970       _ssRegisterSymbolicEqualRelation 0000000180012970 f   HardwareDeploymentTest_sfun_registry.obj
 0001:000119e0       _ssRegisterSymbolicEqualValue 00000001800129e0 f   HardwareDeploymentTest_sfun_registry.obj
 0001:00011a50       _ssAmendLeadingSymbolicDims 0000000180012a50 f   HardwareDeploymentTest_sfun_registry.obj
 0001:00011ad0       _ssAmendTrailingSymbolicDims 0000000180012ad0 f   HardwareDeploymentTest_sfun_registry.obj
 0001:00011b50       _ssRegisterSymbolicDimsPlus 0000000180012b50 f   HardwareDeploymentTest_sfun_registry.obj
 0001:00011bd0       _ssRegisterSymbolicDimsMinus 0000000180012bd0 f   HardwareDeploymentTest_sfun_registry.obj
 0001:00011c50       _ssRegisterSymbolicDimsMultiply 0000000180012c50 f   HardwareDeploymentTest_sfun_registry.obj
 0001:00011cd0       _ssRegisterSymbolicDimsDivide 0000000180012cd0 f   HardwareDeploymentTest_sfun_registry.obj
 0001:00011d50       _ssGetNumSymbolicDims      0000000180012d50 f   HardwareDeploymentTest_sfun_registry.obj
 0001:00011dc0       _ssGetSymbolicDim          0000000180012dc0 f   HardwareDeploymentTest_sfun_registry.obj
 0001:00011e40       _ssSetInputPortSymbolicDimsId 0000000180012e40 f   HardwareDeploymentTest_sfun_registry.obj
 0001:00011eb0       _ssGetCompInputPortSymbolicDimsId 0000000180012eb0 f   HardwareDeploymentTest_sfun_registry.obj
 0001:00011f20       _ssSetCompInputPortSymbolicDimsId 0000000180012f20 f   HardwareDeploymentTest_sfun_registry.obj
 0001:00011f90       _ssSetOutputPortSymbolicDimsId 0000000180012f90 f   HardwareDeploymentTest_sfun_registry.obj
 0001:00012000       _ssGetCompOutputPortSymbolicDimsId 0000000180013000 f   HardwareDeploymentTest_sfun_registry.obj
 0001:00012070       _ssSetCompOutputPortSymbolicDimsId 0000000180013070 f   HardwareDeploymentTest_sfun_registry.obj
 0001:000120e0       _ssGetDWorkSymbolicDimsId  00000001800130e0 f   HardwareDeploymentTest_sfun_registry.obj
 0001:00012150       _ssSetDWorkSymbolicDimsId  0000000180013150 f   HardwareDeploymentTest_sfun_registry.obj
 0001:000121c0       _ssGetCompDWorkSymbolicDimsId 00000001800131c0 f   HardwareDeploymentTest_sfun_registry.obj
 0001:00012230       _ssSetCompDWorkSymbolicDimsId 0000000180013230 f   HardwareDeploymentTest_sfun_registry.obj
 0001:000122a0       _ssCreateSLCGStringBuffer  00000001800132a0 f   HardwareDeploymentTest_sfun_registry.obj
 0001:00012310       _ssAddToSLCGStringBuffer   0000000180013310 f   HardwareDeploymentTest_sfun_registry.obj
 0001:00012380       _ssGetPointerContainedData 0000000180013380 f   HardwareDeploymentTest_sfun_registry.obj
 0001:00012410       _ssGetPointerContainedDataWidth 0000000180013410 f   HardwareDeploymentTest_sfun_registry.obj
 0001:000124a0       _ssRegisterDynamicArrayDataTypeFcn 00000001800134a0 f   HardwareDeploymentTest_sfun_registry.obj
 0001:00012540       _ssGetDynamicArrayContainedDataCurrentWidthFcn 0000000180013540 f   HardwareDeploymentTest_sfun_registry.obj
 0001:00012610       _ssGetDynamicArrayContainedDataFcn 0000000180013610 f   HardwareDeploymentTest_sfun_registry.obj
 0001:000126e0       _ssGetInputPortDynamicArrayDataFcn 00000001800136e0 f   HardwareDeploymentTest_sfun_registry.obj
 0001:000127a0       _ssGetOutputPortDynamicArrayDataFcn 00000001800137a0 f   HardwareDeploymentTest_sfun_registry.obj
 0001:00012860       _ssGetInputPortDynamicArrayContainedDataFcn 0000000180013860 f   HardwareDeploymentTest_sfun_registry.obj
 0001:00012920       _ssGetOutputPortDynamicArrayContainedDataFcn 0000000180013920 f   HardwareDeploymentTest_sfun_registry.obj
 0001:000129e0       _ssGetDynamicArrayDWorkContainedDataFcn 00000001800139e0 f   HardwareDeploymentTest_sfun_registry.obj
 0001:00012aa0       sf_process_check_sum_call  0000000180013aa0 f   HardwareDeploymentTest_sfun_registry.obj
 0001:00012af0       sf_process_get_third_party_uses_info_call 0000000180013af0 f   HardwareDeploymentTest_sfun_registry.obj
 0001:00012d20       sf_process_get_jit_fallback_info_call 0000000180013d20 f   HardwareDeploymentTest_sfun_registry.obj
 0001:00012f50       sf_process_get_post_codegen_info_call 0000000180013f50 f   HardwareDeploymentTest_sfun_registry.obj
 0001:00013180       sf_process_get_updateBuildInfo_args_info_call 0000000180014180 f   HardwareDeploymentTest_sfun_registry.obj
 0001:000133b0       sf_process_get_eml_resolved_functions_info_call 00000001800143b0 f   HardwareDeploymentTest_sfun_registry.obj
 0001:000135e0       sf_mex_unlock_call         00000001800145e0 f   HardwareDeploymentTest_sfun_registry.obj
 0001:00013800       sf_machine_global_initializer_called 0000000180014800 f   HardwareDeploymentTest_sfun_registry.obj
 0001:00013830       sf_machine_global_method_dispatcher 0000000180014830 f   HardwareDeploymentTest_sfun_registry.obj
 0001:00013890       sf_machine_global_terminator 0000000180014890 f   HardwareDeploymentTest_sfun_registry.obj
 0001:000138c0       callCustomFcn              00000001800148c0 f   HardwareDeploymentTest_sfun_registry.obj
 0001:000138d0       sf_machine_global_initializer 00000001800148d0 f   HardwareDeploymentTest_sfun_registry.obj
 0001:00013900       mdlGetSimState             0000000180014900 f   HardwareDeploymentTest_sfun_registry.obj
 0001:00013940       mdlSetSimState             0000000180014940 f   HardwareDeploymentTest_sfun_registry.obj
 0001:000142d0       ProcessMexSfunctionEveryCall 00000001800152d0 f   HardwareDeploymentTest_sfun_registry.obj
 0001:00015450       __local_stdio_printf_options 0000000180016450 f i HardwareDeploymentTest_sfun_registry.obj
 0001:00015460       _vsnprintf_l               0000000180016460 f i HardwareDeploymentTest_sfun_registry.obj
 0001:000154e0       _vsprintf_l                00000001800164e0 f i HardwareDeploymentTest_sfun_registry.obj
 0001:00015530       sprintf                    0000000180016530 f i HardwareDeploymentTest_sfun_registry.obj
 0001:00015580       mexfilerequiredapiversion  0000000180016580 f   c_mexapi_version.obj
 0001:000155b0       getBitfieldFromFloat       00000001800165b0 f   half_type.obj
 0001:000155e0       getFloatFromBitfield       00000001800165e0 f   half_type.obj
 0001:00015610       getBitfieldFromHalf        0000000180016610 f   half_type.obj
 0001:00015630       getHalfFromBitfield        0000000180016630 f   half_type.obj
 0001:00015660       halfToFloat                0000000180016660 f   half_type.obj
 0001:000157e0       halfToDouble               00000001800167e0 f   half_type.obj
 0001:00015810       floatToHalf                0000000180016810 f   half_type.obj
 0001:00015a70       doubleToHalf               0000000180016a70 f   half_type.obj
 0001:00015d5b       grayto8_real64             0000000180016d5b f   libmwgrayto8:libmwgrayto8.dll
 0001:00015d61       rgb2gray_tbb_uint8         0000000180016d61 f   libmwrgb2gray_tbb:libmwrgb2gray_tbb.dll
 0001:00015d67       getnumcores                0000000180016d67 f   libmwgetnumcores:libmwgetnumcores.dll
 0001:00015d6d       sf_load_rtw_optimization_info 0000000180016d6d f   sf_runtime:sf_runtime.dll
 0001:00015d73       sf_mex_decode              0000000180016d73 f   sf_runtime:sf_runtime.dll
 0001:00015d79       sf_init_ChartRunTimeInfo   0000000180016d79 f   sf_runtime:sf_runtime.dll
 0001:00015d7f       sf_free_ChartRunTimeInfo   0000000180016d7f f   sf_runtime:sf_runtime.dll
 0001:00015d85       sf_reset_warnings_ChartRunTimeInfo 0000000180016d85 f   sf_runtime:sf_runtime.dll
 0001:00015d8b       sfrtGetEmlrtCtx            0000000180016d8b f   sf_runtime:sf_runtime.dll
 0001:00015d91       sfrtGetCovrtInstance       0000000180016d91 f   sf_runtime:sf_runtime.dll
 0001:00015d97       sf_get_chart_instance_ptr  0000000180016d97 f   sf_runtime:sf_runtime.dll
 0001:00015d9d       sfSetAnimationVectors      0000000180016d9d f   sf_runtime:sf_runtime.dll
 0001:00015da3       sim_mode_is_rtw_gen        0000000180016da3 f   sf_runtime:sf_runtime.dll
 0001:00015da9       sim_mode_is_external       0000000180016da9 f   sf_runtime:sf_runtime.dll
 0001:00015daf       sf_clear_rtw_identifier    0000000180016daf f   sf_runtime:sf_runtime.dll
 0001:00015db5       sf_get_time                0000000180016db5 f   sf_runtime:sf_runtime.dll
 0001:00015dbb       sf_set_work_widths         0000000180016dbb f   sf_runtime:sf_runtime.dll
 0001:00015dc1       mdlProcessParamsCommon     0000000180016dc1 f   sf_runtime:sf_runtime.dll
 0001:00015dc7       sf_mex_call                0000000180016dc7 f   sf_runtime:sf_runtime.dll
 0001:00015dcd       sf_mex_error_message       0000000180016dcd f   sf_runtime:sf_runtime.dll
 0001:00015dd3       sf_mex_create              0000000180016dd3 f   sf_runtime:sf_runtime.dll
 0001:00015dd9       sf_mex_createcellmatrix    0000000180016dd9 f   sf_runtime:sf_runtime.dll
 0001:00015ddf       sf_mex_setcell             0000000180016ddf f   sf_runtime:sf_runtime.dll
 0001:00015de5       sf_mex_getcell             0000000180016de5 f   sf_runtime:sf_runtime.dll
 0001:00015deb       sf_mex_assign              0000000180016deb f   sf_runtime:sf_runtime.dll
 0001:00015df1       sf_mex_dup                 0000000180016df1 f   sf_runtime:sf_runtime.dll
 0001:00015df7       sf_mex_destroy             0000000180016df7 f   sf_runtime:sf_runtime.dll
 0001:00015dfd       sf_mex_import              0000000180016dfd f   sf_runtime:sf_runtime.dll
 0001:00015e03       ssGetInputPortSignal_wrapper 0000000180016e03 f   sf_runtime:sf_runtime.dll
 0001:00015e09       ssGetOutputPortSignal_wrapper 0000000180016e09 f   sf_runtime:sf_runtime.dll
 0001:00015e0f       sf_data_overflow_error     0000000180016e0f f   sf_runtime:sf_runtime.dll
 0001:00015e15       sf_data_saturate_error     0000000180016e15 f   sf_runtime:sf_runtime.dll
 0001:00015e1b       sf_get_ChartInfoStruct_CodeGen 0000000180016e1b f   sf_runtime:sf_runtime.dll
 0001:00015e21       sf_get_hasSeparateUpdateOutputs 0000000180016e21 f   sf_runtime:sf_runtime.dll
 0001:00015e27       callMdlMethodAndReportError 0000000180016e27 f   sf_runtime:sf_runtime.dll
 0001:00015e2d       call_sf_machine_global_method_dispatcher 0000000180016e2d f   sf_runtime:sf_runtime.dll
 0001:00015e33       getRuntimeInstanceInfoAsVoid 0000000180016e33 f   sf_runtime:sf_runtime.dll
 0001:00015e39       sf_mex_error_direct_call   0000000180016e39 f   sf_runtime:sf_runtime.dll
 0001:00015e3f       sf_clear_error_manager_info 0000000180016e3f f   sf_runtime:sf_runtime.dll
 0001:00015e45       mxIsChar_800               0000000180016e45 f   libmx:libmx.dll
 0001:00015e4b       mxGetScalar_800            0000000180016e4b f   libmx:libmx.dll
 0001:00015e51       mxGetPr_800                0000000180016e51 f   libmx:libmx.dll
 0001:00015e57       mxDestroyArray_800         0000000180016e57 f   libmx:libmx.dll
 0001:00015e5d       mxCreateDoubleMatrix_800   0000000180016e5d f   libmx:libmx.dll
 0001:00015e63       mxGetString_800            0000000180016e63 f   libmx:libmx.dll
 0001:00015e69       mxDuplicateArray_800       0000000180016e69 f   libmx:libmx.dll
 0001:00015e6f       mxSetCell_800              0000000180016e6f f   libmx:libmx.dll
 0001:00015e75       mxSetField_800             0000000180016e75 f   libmx:libmx.dll
 0001:00015e7b       mxCreateString_800         0000000180016e7b f   libmx:libmx.dll
 0001:00015e81       mxCreateCellMatrix_800     0000000180016e81 f   libmx:libmx.dll
 0001:00015e87       mxCreateStructMatrix_800   0000000180016e87 f   libmx:libmx.dll
 0001:00015e8d       mxGetInf_800               0000000180016e8d f   libmx:libmx.dll
 0001:00015e93       mxCalloc_800               0000000180016e93 f   libmx:libmx.dll
 0001:00015e99       mxGetM_800                 0000000180016e99 f   libmx:libmx.dll
 0001:00015e9f       mxGetClassID_800           0000000180016e9f f   libmx:libmx.dll
 0001:00015ea5       mxIsNumeric_800            0000000180016ea5 f   libmx:libmx.dll
 0001:00015eab       mxIsComplex_800            0000000180016eab f   libmx:libmx.dll
 0001:00015eb1       mxGetN_800                 0000000180016eb1 f   libmx:libmx.dll
 0001:00015eb7       mxCreateDoubleScalar_800   0000000180016eb7 f   libmx:libmx.dll
 0001:00015ebd       mexMakeArrayPersistent_800 0000000180016ebd f   libmex:libmex.dll
 0001:00015ec3       mexErrMsgTxt_800           0000000180016ec3 f   libmex:libmex.dll
 0001:00015ec9       mexWarnMsgTxt_800          0000000180016ec9 f   libmex:libmex.dll
 0001:00015ecf       mexCallMATLAB_800          0000000180016ecf f   libmex:libmex.dll
 0001:00015ed5       mexLock_800                0000000180016ed5 f   libmex:libmex.dll
 0001:00015edb       mexUnlock_800              0000000180016edb f   libmex:libmex.dll
 0001:00015ee1       mexIsLocked_800            0000000180016ee1 f   libmex:libmex.dll
 0001:00015ee7       utMalloc                   0000000180016ee7 f   libut:libut.dll
 0001:00015eed       utFree                     0000000180016eed f   libut:libut.dll
 0001:00015ef3       muDoubleScalarFloor        0000000180016ef3 f   libmwmathutil:libmwmathutil.dll
 0001:00015ef9       muDoubleScalarIsNaN        0000000180016ef9 f   libmwmathutil:libmwmathutil.dll
 0001:00015eff       muDoubleScalarIsInf        0000000180016eff f   libmwmathutil:libmwmathutil.dll
 0001:00015f05       muDoubleScalarRound        0000000180016f05 f   libmwmathutil:libmwmathutil.dll
 0001:00015f0b       emlrtLicenseCheckR2022a    0000000180016f0b f   libemlrt:libemlrt.dll
 0001:00015f11       emlrtDynamicBoundsCheckR2012b 0000000180016f11 f   libemlrt:libemlrt.dll
 0001:00015f17       emlrtIntegerCheckR2012b    0000000180016f17 f   libemlrt:libemlrt.dll
 0001:00015f1d       covrtCreateStateflowInstanceData 0000000180016f1d f   libcovrt:libcovrt.dll
 0001:00015f23       covrtDeleteStateflowInstanceData 0000000180016f23 f   libcovrt:libcovrt.dll
 0001:00015f29       covrtTransInitFcn          0000000180016f29 f   libcovrt:libcovrt.dll
 0001:00015f2f       covrtStateInitFcn          0000000180016f2f f   libcovrt:libcovrt.dll
 0001:00015f35       covrtChartInitFcn          0000000180016f35 f   libcovrt:libcovrt.dll
 0001:00015f3b       covrtSigUpdateFcn          0000000180016f3b f   libcovrt:libcovrt.dll
 0001:00015f41       covrtEmlInitFcn            0000000180016f41 f   libcovrt:libcovrt.dll
 0001:00015f47       covrtEmlFcnInitFcn         0000000180016f47 f   libcovrt:libcovrt.dll
 0001:00015f4d       covrtEmlFcnEval            0000000180016f4d f   libcovrt:libcovrt.dll
 0001:00015f53       covrtSaturationUpdateFcn   0000000180016f53 f   libcovrt:libcovrt.dll
 0001:00015f59       covrtEmlSaturationInitFcn  0000000180016f59 f   libcovrt:libcovrt.dll
 0001:00015f60       __raise_securityfailure    0000000180016f60 f   MSVCRT:gs_report.obj
 0001:00015f94       __report_gsfailure         0000000180016f94 f   MSVCRT:gs_report.obj
 0001:00016068       __report_rangecheckfailure 0000000180017068 f   MSVCRT:gs_report.obj
 0001:0001607c       __report_securityfailure   000000018001707c f   MSVCRT:gs_report.obj
 0001:00016118       __report_securityfailureEx 0000000180017118 f   MSVCRT:gs_report.obj
 0001:0001630c       __GSHandlerCheck           000000018001730c f   MSVCRT:gshandler.obj
 0001:0001632c       __GSHandlerCheckCommon     000000018001732c f   MSVCRT:gshandler.obj
 0001:000163a0       __security_check_cookie    00000001800173a0 f   MSVCRT:amdsecgs.obj
 0001:000163d0       __chkstk                   00000001800173d0 f   MSVCRT:chkstk.obj
 0001:000163d0       _alloca_probe              00000001800173d0 f   MSVCRT:chkstk.obj
 0001:0001675c       _CRT_INIT                  000000018001775c f   MSVCRT:dll_dllmain.obj
 0001:00016764       _DllMainCRTStartup         0000000180017764 f   MSVCRT:dll_dllmain.obj
 0001:00016810       __security_init_cookie     0000000180017810 f   MSVCRT:gs_support.obj
 0001:000168bc       DllMain                    00000001800178bc f   MSVCRT:dll_dllmain_stub.obj
 0001:000168e0       ?__scrt_initialize_type_info@@YAXXZ 00000001800178e0 f   MSVCRT:tncleanup.obj
 0001:000168f0       ?__scrt_uninitialize_type_info@@YAXXZ 00000001800178f0 f   MSVCRT:tncleanup.obj
 0001:000168fc       __local_stdio_scanf_options 00000001800178fc f i MSVCRT:default_local_stdio_options.obj
 0001:00016904       __scrt_initialize_default_local_stdio_options 0000000180017904 f   MSVCRT:default_local_stdio_options.obj
 0001:00016920       ?configure_argv@__scrt_narrow_argv_policy@@SAHXZ 0000000180017920 f i MSVCRT:utility.obj
 0001:00016980       ?initialize_environment@__scrt_narrow_environment_policy@@SAHXZ 0000000180017980 f i MSVCRT:utility.obj
 0001:000169b8       NtCurrentTeb               00000001800179b8 f i MSVCRT:utility.obj
 0001:000169c4       __scrt_acquire_startup_lock 00000001800179c4 f   MSVCRT:utility.obj
 0001:00016a00       __scrt_dllmain_after_initialize_c 0000000180017a00 f   MSVCRT:utility.obj
 0001:00016a34       __scrt_dllmain_before_initialize_c 0000000180017a34 f   MSVCRT:utility.obj
 0001:00016a4c       __scrt_dllmain_crt_thread_attach 0000000180017a4c f   MSVCRT:utility.obj
 0001:00016a74       __scrt_dllmain_crt_thread_detach 0000000180017a74 f   MSVCRT:utility.obj
 0001:00016a8c       __scrt_dllmain_exception_filter 0000000180017a8c f   MSVCRT:utility.obj
 0001:00016aec       __scrt_dllmain_uninitialize_c 0000000180017aec f   MSVCRT:utility.obj
 0001:00016b1c       __scrt_dllmain_uninitialize_critical 0000000180017b1c f   MSVCRT:utility.obj
 0001:00016b30       __scrt_initialize_crt      0000000180017b30 f   MSVCRT:utility.obj
 0001:00016b7c       __scrt_initialize_onexit_tables 0000000180017b7c f   MSVCRT:utility.obj
 0001:00016c08       __scrt_is_nonwritable_in_current_image 0000000180017c08 f   MSVCRT:utility.obj
 0001:00016ca0       __scrt_release_startup_lock 0000000180017ca0 f   MSVCRT:utility.obj
 0001:00016cc4       __scrt_uninitialize_crt    0000000180017cc4 f   MSVCRT:utility.obj
 0001:00016cf0       _onexit                    0000000180017cf0 f   MSVCRT:utility.obj
 0001:00016d2c       at_quick_exit              0000000180017d2c f   MSVCRT:utility.obj
 0001:00016d4c       atexit                     0000000180017d4c f   MSVCRT:utility.obj
 0001:00016d64       __scrt_get_dyn_tls_init_callback 0000000180017d64 f   MSVCRT:dyn_tls_init.obj
 0001:00016d6c       __crt_debugger_hook        0000000180017d6c f   MSVCRT:utility_desktop.obj
 0001:00016d74       __scrt_fastfail            0000000180017d74 f   MSVCRT:utility_desktop.obj
 0001:00016ec0       __scrt_get_show_window_mode 0000000180017ec0 f   MSVCRT:utility_desktop.obj
 0001:00016efc       __scrt_initialize_mta      0000000180017efc f   MSVCRT:utility_desktop.obj
 0001:00016f04       __scrt_initialize_winrt    0000000180017f04 f   MSVCRT:utility_desktop.obj
 0001:00016f08       __scrt_is_managed_app      0000000180017f08 f   MSVCRT:utility_desktop.obj
 0001:00016f5c       __scrt_set_unhandled_exception_filter 0000000180017f5c f   MSVCRT:utility_desktop.obj
 0001:00016f6c       __scrt_exe_initialize_mta  0000000180017f6c f   MSVCRT:utility_desktop.obj
 0001:00016f6c       __scrt_stub_for_initialize_mta 0000000180017f6c f   MSVCRT:utility_desktop.obj
 0001:00016f70       __scrt_unhandled_exception_filter 0000000180017f70 f   MSVCRT:utility_desktop.obj
 0001:00016fcc       _RTC_Initialize            0000000180017fcc f   MSVCRT:initsect.obj
 0001:00017008       _RTC_Terminate             0000000180018008 f   MSVCRT:initsect.obj
 0001:00017044       _guard_check_icall_nop     0000000180018044 f i MSVCRT:guard_support.obj
 0001:00017048       ReadNoFence64              0000000180018048 f i MSVCRT:guard_support.obj
 0001:0001704c       ReadPointerNoFence         000000018001804c f i MSVCRT:guard_support.obj
 0001:00017050       __castguard_check_failure_debugbreak 0000000180018050 f i MSVCRT:guard_support.obj
 0001:0001706c       __castguard_check_failure_fastfail 000000018001806c f i MSVCRT:guard_support.obj
 0001:00017090       __castguard_check_failure_nop 0000000180018090 f i MSVCRT:guard_support.obj
 0001:00017094       __castguard_check_failure_os_handled 0000000180018094 f i MSVCRT:guard_support.obj
 0001:00017110       __castguard_slow_path_check_debugbreak 0000000180018110 f i MSVCRT:guard_support.obj
 0001:00017144       __castguard_slow_path_check_fastfail 0000000180018144 f i MSVCRT:guard_support.obj
 0001:00017180       __castguard_slow_path_check_nop 0000000180018180 f i MSVCRT:guard_support.obj
 0001:00017184       __castguard_slow_path_check_os_handled 0000000180018184 f i MSVCRT:guard_support.obj
 0001:000171f4       _guard_icall_checks_enforced 00000001800181f4 f i MSVCRT:guard_support.obj
 0001:0001720c       _guard_rf_checks_enforced  000000018001820c f i MSVCRT:guard_support.obj
 0001:00017210       __isa_available_init       0000000180018210 f   MSVCRT:cpu_disp.obj
 0001:000173bc       _get_startup_argv_mode     00000001800183bc f   MSVCRT:argv_mode.obj
 0001:000173c4       __scrt_is_ucrt_dll_in_use  00000001800183c4 f   MSVCRT:ucrt_detection.obj
 0001:000173d0       RtlCaptureContext          00000001800183d0 f   kernel32:KERNEL32.dll
 0001:000173d6       RtlLookupFunctionEntry     00000001800183d6 f   kernel32:KERNEL32.dll
 0001:000173dc       RtlVirtualUnwind           00000001800183dc f   kernel32:KERNEL32.dll
 0001:000173e2       UnhandledExceptionFilter   00000001800183e2 f   kernel32:KERNEL32.dll
 0001:000173e8       SetUnhandledExceptionFilter 00000001800183e8 f   kernel32:KERNEL32.dll
 0001:000173ee       GetCurrentProcess          00000001800183ee f   kernel32:KERNEL32.dll
 0001:000173f4       TerminateProcess           00000001800183f4 f   kernel32:KERNEL32.dll
 0001:000173fa       IsProcessorFeaturePresent  00000001800183fa f   kernel32:KERNEL32.dll
 0001:00017400       QueryPerformanceCounter    0000000180018400 f   kernel32:KERNEL32.dll
 0001:00017406       GetCurrentProcessId        0000000180018406 f   kernel32:KERNEL32.dll
 0001:0001740c       GetCurrentThreadId         000000018001840c f   kernel32:KERNEL32.dll
 0001:00017412       GetSystemTimeAsFileTime    0000000180018412 f   kernel32:KERNEL32.dll
 0001:00017418       DisableThreadLibraryCalls  0000000180018418 f   kernel32:KERNEL32.dll
 0001:0001741e       InitializeSListHead        000000018001841e f   kernel32:KERNEL32.dll
 0001:00017424       IsDebuggerPresent          0000000180018424 f   kernel32:KERNEL32.dll
 0001:0001742a       GetStartupInfoW            000000018001842a f   kernel32:KERNEL32.dll
 0001:00017430       GetModuleHandleW           0000000180018430 f   kernel32:KERNEL32.dll
 0001:00017436       memset                     0000000180018436 f   vcruntime:VCRUNTIME140.dll
 0001:0001743c       memcpy                     000000018001843c f   vcruntime:VCRUNTIME140.dll
 0001:00017442       __C_specific_handler       0000000180018442 f   vcruntime:VCRUNTIME140.dll
 0001:00017448       __std_type_info_destroy_list 0000000180018448 f   vcruntime:VCRUNTIME140.dll
 0001:0001744e       __current_exception        000000018001844e f   vcruntime:VCRUNTIME140.dll
 0001:00017454       __current_exception_context 0000000180018454 f   vcruntime:VCRUNTIME140.dll
 0001:0001745a       strcmp                     000000018001845a f   ucrt:api-ms-win-crt-string-l1-1-0.dll
 0001:00017460       strcat                     0000000180018460 f   ucrt:api-ms-win-crt-string-l1-1-0.dll
 0001:00017466       __stdio_common_vsprintf    0000000180018466 f   ucrt:api-ms-win-crt-stdio-l1-1-0.dll
 0001:0001746c       free                       000000018001846c f   ucrt:api-ms-win-crt-heap-l1-1-0.dll
 0001:00017472       malloc                     0000000180018472 f   ucrt:api-ms-win-crt-heap-l1-1-0.dll
 0001:00017478       strlen                     0000000180018478 f   ucrt:api-ms-win-crt-string-l1-1-0.dll
 0001:0001747e       _initterm                  000000018001847e f   ucrt:api-ms-win-crt-runtime-l1-1-0.dll
 0001:00017484       _initterm_e                0000000180018484 f   ucrt:api-ms-win-crt-runtime-l1-1-0.dll
 0001:0001748a       _seh_filter_dll            000000018001848a f   ucrt:api-ms-win-crt-runtime-l1-1-0.dll
 0001:00017490       _configure_narrow_argv     0000000180018490 f   ucrt:api-ms-win-crt-runtime-l1-1-0.dll
 0001:00017496       _initialize_narrow_environment 0000000180018496 f   ucrt:api-ms-win-crt-runtime-l1-1-0.dll
 0001:0001749c       _initialize_onexit_table   000000018001849c f   ucrt:api-ms-win-crt-runtime-l1-1-0.dll
 0001:000174a2       _register_onexit_function  00000001800184a2 f   ucrt:api-ms-win-crt-runtime-l1-1-0.dll
 0001:000174a8       _execute_onexit_table      00000001800184a8 f   ucrt:api-ms-win-crt-runtime-l1-1-0.dll
 0001:000174ae       _crt_atexit                00000001800184ae f   ucrt:api-ms-win-crt-runtime-l1-1-0.dll
 0001:000174b4       _crt_at_quick_exit         00000001800184b4 f   ucrt:api-ms-win-crt-runtime-l1-1-0.dll
 0001:000174ba       _cexit                     00000001800184ba f   ucrt:api-ms-win-crt-runtime-l1-1-0.dll
 0001:000174c0       terminate                  00000001800184c0 f   ucrt:api-ms-win-crt-runtime-l1-1-0.dll
 0001:000174c8       __acrt_initialize          00000001800184c8 f   MSVCRT:ucrt_stubs.obj
 0001:000174c8       __scrt_stub_for_acrt_initialize 00000001800184c8 f   MSVCRT:ucrt_stubs.obj
 0001:000174c8       __vcrt_initialize          00000001800184c8 f   MSVCRT:ucrt_stubs.obj
 0001:000174cc       __acrt_thread_attach       00000001800184cc f   MSVCRT:ucrt_stubs.obj
 0001:000174cc       __scrt_stub_for_acrt_thread_attach 00000001800184cc f   MSVCRT:ucrt_stubs.obj
 0001:000174cc       __vcrt_thread_attach       00000001800184cc f   MSVCRT:ucrt_stubs.obj
 0001:000174d0       __acrt_thread_detach       00000001800184d0 f   MSVCRT:ucrt_stubs.obj
 0001:000174d0       __scrt_stub_for_acrt_thread_detach 00000001800184d0 f   MSVCRT:ucrt_stubs.obj
 0001:000174d0       __vcrt_thread_detach       00000001800184d0 f   MSVCRT:ucrt_stubs.obj
 0001:000174d4       __acrt_uninitialize        00000001800184d4 f   MSVCRT:ucrt_stubs.obj
 0001:000174d4       __scrt_stub_for_acrt_uninitialize 00000001800184d4 f   MSVCRT:ucrt_stubs.obj
 0001:000174d4       __vcrt_uninitialize        00000001800184d4 f   MSVCRT:ucrt_stubs.obj
 0001:000174d8       __acrt_uninitialize_critical 00000001800184d8 f   MSVCRT:ucrt_stubs.obj
 0001:000174d8       __scrt_stub_for_acrt_uninitialize_critical 00000001800184d8 f   MSVCRT:ucrt_stubs.obj
 0001:000174d8       __vcrt_uninitialize_critical 00000001800184d8 f   MSVCRT:ucrt_stubs.obj
 0001:000174dc       __scrt_stub_for_is_c_termination_complete 00000001800184dc f   MSVCRT:ucrt_stubs.obj
 0001:000174dc       _is_c_termination_complete 00000001800184dc f   MSVCRT:ucrt_stubs.obj
 0001:000174f0       _guard_dispatch_icall_nop  00000001800184f0 f   MSVCRT:guard_dispatch.obj
 0001:00017510       _guard_xfg_dispatch_icall_nop 0000000180018510 f   MSVCRT:guard_xfg_dispatch.obj
 0002:00000000       __imp_GetSystemTimeAsFileTime 0000000180019000     kernel32:KERNEL32.dll
 0002:00000008       __imp_IsProcessorFeaturePresent 0000000180019008     kernel32:KERNEL32.dll
 0002:00000010       __imp_RtlCaptureContext    0000000180019010     kernel32:KERNEL32.dll
 0002:00000018       __imp_RtlLookupFunctionEntry 0000000180019018     kernel32:KERNEL32.dll
 0002:00000020       __imp_QueryPerformanceCounter 0000000180019020     kernel32:KERNEL32.dll
 0002:00000028       __imp_GetCurrentProcessId  0000000180019028     kernel32:KERNEL32.dll
 0002:00000030       __imp_GetCurrentThreadId   0000000180019030     kernel32:KERNEL32.dll
 0002:00000038       __imp_DisableThreadLibraryCalls 0000000180019038     kernel32:KERNEL32.dll
 0002:00000040       __imp_InitializeSListHead  0000000180019040     kernel32:KERNEL32.dll
 0002:00000048       __imp_IsDebuggerPresent    0000000180019048     kernel32:KERNEL32.dll
 0002:00000050       __imp_GetStartupInfoW      0000000180019050     kernel32:KERNEL32.dll
 0002:00000058       __imp_GetModuleHandleW     0000000180019058     kernel32:KERNEL32.dll
 0002:00000060       __imp_GetCurrentProcess    0000000180019060     kernel32:KERNEL32.dll
 0002:00000068       __imp_SetUnhandledExceptionFilter 0000000180019068     kernel32:KERNEL32.dll
 0002:00000070       __imp_UnhandledExceptionFilter 0000000180019070     kernel32:KERNEL32.dll
 0002:00000078       __imp_RtlVirtualUnwind     0000000180019078     kernel32:KERNEL32.dll
 0002:00000080       __imp_TerminateProcess     0000000180019080     kernel32:KERNEL32.dll
 0002:00000088       \177KERNEL32_NULL_THUNK_DATA 0000000180019088     kernel32:KERNEL32.dll
 0002:00000090       __imp_memset               0000000180019090     vcruntime:VCRUNTIME140.dll
 0002:00000098       __imp_memcpy               0000000180019098     vcruntime:VCRUNTIME140.dll
 0002:000000a0       __imp___C_specific_handler 00000001800190a0     vcruntime:VCRUNTIME140.dll
 0002:000000a8       __imp___std_type_info_destroy_list 00000001800190a8     vcruntime:VCRUNTIME140.dll
 0002:000000b0       __imp___current_exception  00000001800190b0     vcruntime:VCRUNTIME140.dll
 0002:000000b8       __imp___current_exception_context 00000001800190b8     vcruntime:VCRUNTIME140.dll
 0002:000000c0       \177VCRUNTIME140_NULL_THUNK_DATA 00000001800190c0     vcruntime:VCRUNTIME140.dll
 0002:000000c8       __imp_malloc               00000001800190c8     ucrt:api-ms-win-crt-heap-l1-1-0.dll
 0002:000000d0       __imp_free                 00000001800190d0     ucrt:api-ms-win-crt-heap-l1-1-0.dll
 0002:000000d8       \177api-ms-win-crt-heap-l1-1-0_NULL_THUNK_DATA 00000001800190d8     ucrt:api-ms-win-crt-heap-l1-1-0.dll
 0002:000000e0       __imp__seh_filter_dll      00000001800190e0     ucrt:api-ms-win-crt-runtime-l1-1-0.dll
 0002:000000e8       __imp__configure_narrow_argv 00000001800190e8     ucrt:api-ms-win-crt-runtime-l1-1-0.dll
 0002:000000f0       __imp__initialize_onexit_table 00000001800190f0     ucrt:api-ms-win-crt-runtime-l1-1-0.dll
 0002:000000f8       __imp__register_onexit_function 00000001800190f8     ucrt:api-ms-win-crt-runtime-l1-1-0.dll
 0002:00000100       __imp__execute_onexit_table 0000000180019100     ucrt:api-ms-win-crt-runtime-l1-1-0.dll
 0002:00000108       __imp__crt_atexit          0000000180019108     ucrt:api-ms-win-crt-runtime-l1-1-0.dll
 0002:00000110       __imp__initialize_narrow_environment 0000000180019110     ucrt:api-ms-win-crt-runtime-l1-1-0.dll
 0002:00000118       __imp__initterm_e          0000000180019118     ucrt:api-ms-win-crt-runtime-l1-1-0.dll
 0002:00000120       __imp__crt_at_quick_exit   0000000180019120     ucrt:api-ms-win-crt-runtime-l1-1-0.dll
 0002:00000128       __imp__cexit               0000000180019128     ucrt:api-ms-win-crt-runtime-l1-1-0.dll
 0002:00000130       __imp_terminate            0000000180019130     ucrt:api-ms-win-crt-runtime-l1-1-0.dll
 0002:00000138       __imp__initterm            0000000180019138     ucrt:api-ms-win-crt-runtime-l1-1-0.dll
 0002:00000140       \177api-ms-win-crt-runtime-l1-1-0_NULL_THUNK_DATA 0000000180019140     ucrt:api-ms-win-crt-runtime-l1-1-0.dll
 0002:00000148       __imp___stdio_common_vsprintf 0000000180019148     ucrt:api-ms-win-crt-stdio-l1-1-0.dll
 0002:00000150       \177api-ms-win-crt-stdio-l1-1-0_NULL_THUNK_DATA 0000000180019150     ucrt:api-ms-win-crt-stdio-l1-1-0.dll
 0002:00000158       __imp_strlen               0000000180019158     ucrt:api-ms-win-crt-string-l1-1-0.dll
 0002:00000160       __imp_strcat               0000000180019160     ucrt:api-ms-win-crt-string-l1-1-0.dll
 0002:00000168       __imp_strcmp               0000000180019168     ucrt:api-ms-win-crt-string-l1-1-0.dll
 0002:00000170       \177api-ms-win-crt-string-l1-1-0_NULL_THUNK_DATA 0000000180019170     ucrt:api-ms-win-crt-string-l1-1-0.dll
 0002:00000178       __imp_covrtCreateStateflowInstanceData 0000000180019178     libcovrt:libcovrt.dll
 0002:00000180       __imp_covrtEmlSaturationInitFcn 0000000180019180     libcovrt:libcovrt.dll
 0002:00000188       __imp_covrtSaturationUpdateFcn 0000000180019188     libcovrt:libcovrt.dll
 0002:00000190       __imp_covrtEmlFcnEval      0000000180019190     libcovrt:libcovrt.dll
 0002:00000198       __imp_covrtEmlFcnInitFcn   0000000180019198     libcovrt:libcovrt.dll
 0002:000001a0       __imp_covrtEmlInitFcn      00000001800191a0     libcovrt:libcovrt.dll
 0002:000001a8       __imp_covrtSigUpdateFcn    00000001800191a8     libcovrt:libcovrt.dll
 0002:000001b0       __imp_covrtChartInitFcn    00000001800191b0     libcovrt:libcovrt.dll
 0002:000001b8       __imp_covrtStateInitFcn    00000001800191b8     libcovrt:libcovrt.dll
 0002:000001c0       __imp_covrtTransInitFcn    00000001800191c0     libcovrt:libcovrt.dll
 0002:000001c8       __imp_covrtDeleteStateflowInstanceData 00000001800191c8     libcovrt:libcovrt.dll
 0002:000001d0       \177libcovrt_NULL_THUNK_DATA 00000001800191d0     libcovrt:libcovrt.dll
 0002:000001d8       __imp_emlrtIntegerCheckR2012b 00000001800191d8     libemlrt:libemlrt.dll
 0002:000001e0       __imp_emlrtDynamicBoundsCheckR2012b 00000001800191e0     libemlrt:libemlrt.dll
 0002:000001e8       __imp_emlrtLicenseCheckR2022a 00000001800191e8     libemlrt:libemlrt.dll
 0002:000001f0       \177libemlrt_NULL_THUNK_DATA 00000001800191f0     libemlrt:libemlrt.dll
 0002:000001f8       __imp_mexUnlock_800        00000001800191f8     libmex:libmex.dll
 0002:00000200       __imp_mexMakeArrayPersistent_800 0000000180019200     libmex:libmex.dll
 0002:00000208       __imp_mexErrMsgTxt_800     0000000180019208     libmex:libmex.dll
 0002:00000210       __imp_mexWarnMsgTxt_800    0000000180019210     libmex:libmex.dll
 0002:00000218       __imp_mexCallMATLAB_800    0000000180019218     libmex:libmex.dll
 0002:00000220       __imp_mexLock_800          0000000180019220     libmex:libmex.dll
 0002:00000228       __imp_mexIsLocked_800      0000000180019228     libmex:libmex.dll
 0002:00000230       \177libmex_NULL_THUNK_DATA 0000000180019230     libmex:libmex.dll
 0002:00000238       __imp_getnumcores          0000000180019238     libmwgetnumcores:libmwgetnumcores.dll
 0002:00000240       \177libmwgetnumcores_NULL_THUNK_DATA 0000000180019240     libmwgetnumcores:libmwgetnumcores.dll
 0002:00000248       __imp_grayto8_real64       0000000180019248     libmwgrayto8:libmwgrayto8.dll
 0002:00000250       \177libmwgrayto8_NULL_THUNK_DATA 0000000180019250     libmwgrayto8:libmwgrayto8.dll
 0002:00000258       __imp_muDoubleScalarIsNaN  0000000180019258     libmwmathutil:libmwmathutil.dll
 0002:00000260       __imp_muDoubleScalarIsInf  0000000180019260     libmwmathutil:libmwmathutil.dll
 0002:00000268       __imp_muDoubleScalarRound  0000000180019268     libmwmathutil:libmwmathutil.dll
 0002:00000270       __imp_muDoubleScalarFloor  0000000180019270     libmwmathutil:libmwmathutil.dll
 0002:00000278       \177libmwmathutil_NULL_THUNK_DATA 0000000180019278     libmwmathutil:libmwmathutil.dll
 0002:00000280       __imp_rgb2gray_tbb_uint8   0000000180019280     libmwrgb2gray_tbb:libmwrgb2gray_tbb.dll
 0002:00000288       \177libmwrgb2gray_tbb_NULL_THUNK_DATA 0000000180019288     libmwrgb2gray_tbb:libmwrgb2gray_tbb.dll
 0002:00000290       __imp_mxIsComplex_800      0000000180019290     libmx:libmx.dll
 0002:00000298       __imp_mxIsNumeric_800      0000000180019298     libmx:libmx.dll
 0002:000002a0       __imp_mxGetClassID_800     00000001800192a0     libmx:libmx.dll
 0002:000002a8       __imp_mxGetM_800           00000001800192a8     libmx:libmx.dll
 0002:000002b0       __imp_mxGetN_800           00000001800192b0     libmx:libmx.dll
 0002:000002b8       __imp_mxCreateDoubleScalar_800 00000001800192b8     libmx:libmx.dll
 0002:000002c0       __imp_mxCreateStructMatrix_800 00000001800192c0     libmx:libmx.dll
 0002:000002c8       __imp_mxCreateCellMatrix_800 00000001800192c8     libmx:libmx.dll
 0002:000002d0       __imp_mxCreateString_800   00000001800192d0     libmx:libmx.dll
 0002:000002d8       __imp_mxSetField_800       00000001800192d8     libmx:libmx.dll
 0002:000002e0       __imp_mxSetCell_800        00000001800192e0     libmx:libmx.dll
 0002:000002e8       __imp_mxDuplicateArray_800 00000001800192e8     libmx:libmx.dll
 0002:000002f0       __imp_mxGetString_800      00000001800192f0     libmx:libmx.dll
 0002:000002f8       __imp_mxCreateDoubleMatrix_800 00000001800192f8     libmx:libmx.dll
 0002:00000300       __imp_mxDestroyArray_800   0000000180019300     libmx:libmx.dll
 0002:00000308       __imp_mxGetPr_800          0000000180019308     libmx:libmx.dll
 0002:00000310       __imp_mxGetScalar_800      0000000180019310     libmx:libmx.dll
 0002:00000318       __imp_mxIsChar_800         0000000180019318     libmx:libmx.dll
 0002:00000320       __imp_mxGetInf_800         0000000180019320     libmx:libmx.dll
 0002:00000328       __imp_mxCalloc_800         0000000180019328     libmx:libmx.dll
 0002:00000330       \177libmx_NULL_THUNK_DATA  0000000180019330     libmx:libmx.dll
 0002:00000338       __imp_utMalloc             0000000180019338     libut:libut.dll
 0002:00000340       __imp_utFree               0000000180019340     libut:libut.dll
 0002:00000348       \177libut_NULL_THUNK_DATA  0000000180019348     libut:libut.dll
 0002:00000350       __imp_sf_get_hasSeparateUpdateOutputs 0000000180019350     sf_runtime:sf_runtime.dll
 0002:00000358       __imp_sf_mex_error_direct_call 0000000180019358     sf_runtime:sf_runtime.dll
 0002:00000360       __imp_sf_data_saturate_error 0000000180019360     sf_runtime:sf_runtime.dll
 0002:00000368       __imp_sf_data_overflow_error 0000000180019368     sf_runtime:sf_runtime.dll
 0002:00000370       __imp_ssGetOutputPortSignal_wrapper 0000000180019370     sf_runtime:sf_runtime.dll
 0002:00000378       __imp_ssGetInputPortSignal_wrapper 0000000180019378     sf_runtime:sf_runtime.dll
 0002:00000380       __imp_sf_mex_import        0000000180019380     sf_runtime:sf_runtime.dll
 0002:00000388       __imp_sf_mex_destroy       0000000180019388     sf_runtime:sf_runtime.dll
 0002:00000390       __imp_sf_mex_dup           0000000180019390     sf_runtime:sf_runtime.dll
 0002:00000398       __imp_sf_mex_assign        0000000180019398     sf_runtime:sf_runtime.dll
 0002:000003a0       __imp_sf_mex_getcell       00000001800193a0     sf_runtime:sf_runtime.dll
 0002:000003a8       __imp_sf_mex_setcell       00000001800193a8     sf_runtime:sf_runtime.dll
 0002:000003b0       __imp_sf_mex_createcellmatrix 00000001800193b0     sf_runtime:sf_runtime.dll
 0002:000003b8       __imp_sf_mex_create        00000001800193b8     sf_runtime:sf_runtime.dll
 0002:000003c0       __imp_sf_mex_error_message 00000001800193c0     sf_runtime:sf_runtime.dll
 0002:000003c8       __imp_callMdlMethodAndReportError 00000001800193c8     sf_runtime:sf_runtime.dll
 0002:000003d0       __imp_mdlProcessParamsCommon 00000001800193d0     sf_runtime:sf_runtime.dll
 0002:000003d8       __imp_sf_set_work_widths   00000001800193d8     sf_runtime:sf_runtime.dll
 0002:000003e0       __imp_sf_get_time          00000001800193e0     sf_runtime:sf_runtime.dll
 0002:000003e8       __imp_sf_clear_rtw_identifier 00000001800193e8     sf_runtime:sf_runtime.dll
 0002:000003f0       __imp_sim_mode_is_external 00000001800193f0     sf_runtime:sf_runtime.dll
 0002:000003f8       __imp_sim_mode_is_rtw_gen  00000001800193f8     sf_runtime:sf_runtime.dll
 0002:00000400       __imp_sfSetAnimationVectors 0000000180019400     sf_runtime:sf_runtime.dll
 0002:00000408       __imp_sf_get_chart_instance_ptr 0000000180019408     sf_runtime:sf_runtime.dll
 0002:00000410       __imp_sfrtGetCovrtInstance 0000000180019410     sf_runtime:sf_runtime.dll
 0002:00000418       __imp_sfrtGetEmlrtCtx      0000000180019418     sf_runtime:sf_runtime.dll
 0002:00000420       __imp_sf_reset_warnings_ChartRunTimeInfo 0000000180019420     sf_runtime:sf_runtime.dll
 0002:00000428       __imp_sf_free_ChartRunTimeInfo 0000000180019428     sf_runtime:sf_runtime.dll
 0002:00000430       __imp_sf_init_ChartRunTimeInfo 0000000180019430     sf_runtime:sf_runtime.dll
 0002:00000438       __imp_sf_mex_decode        0000000180019438     sf_runtime:sf_runtime.dll
 0002:00000440       __imp_sf_load_rtw_optimization_info 0000000180019440     sf_runtime:sf_runtime.dll
 0002:00000448       __imp_sf_clear_error_manager_info 0000000180019448     sf_runtime:sf_runtime.dll
 0002:00000450       __imp_call_sf_machine_global_method_dispatcher 0000000180019450     sf_runtime:sf_runtime.dll
 0002:00000458       __imp_sf_mex_call          0000000180019458     sf_runtime:sf_runtime.dll
 0002:00000460       __imp_getRuntimeInstanceInfoAsVoid 0000000180019460     sf_runtime:sf_runtime.dll
 0002:00000468       __imp_sf_get_ChartInfoStruct_CodeGen 0000000180019468     sf_runtime:sf_runtime.dll
 0002:00000470       \177sf_runtime_NULL_THUNK_DATA 0000000180019470     sf_runtime:sf_runtime.dll
 0002:00000478       __guard_check_icall_fptr   0000000180019478     MSVCRT:guard_support.obj
 0002:00000480       __guard_xfg_check_icall_fptr 0000000180019480     MSVCRT:guard_support.obj
 0002:00000488       __guard_dispatch_icall_fptr 0000000180019488     MSVCRT:guard_support.obj
 0002:00000490       __guard_xfg_dispatch_icall_fptr 0000000180019490     MSVCRT:guard_support.obj
 0002:00000498       __guard_xfg_table_dispatch_icall_fptr 0000000180019498     MSVCRT:guard_support.obj
 0002:000004a0       __castguard_check_failure_os_handled_fptr 00000001800194a0     MSVCRT:guard_support.obj
 0002:000004a8       __guard_memcpy_fptr        00000001800194a8     vcruntime:softmemtag.obj
 0002:000004b0       __xc_a                     00000001800194b0     MSVCRT:initializers.obj
 0002:000004b8       __xc_z                     00000001800194b8     MSVCRT:initializers.obj
 0002:000004c0       __xi_a                     00000001800194c0     MSVCRT:initializers.obj
 0002:000004c8       __xi_z                     00000001800194c8     MSVCRT:initializers.obj
 0002:000004d0       __xp_a                     00000001800194d0     MSVCRT:initializers.obj
 0002:000004d8       __xp_z                     00000001800194d8     MSVCRT:initializers.obj
 0002:000004e0       __xt_a                     00000001800194e0     MSVCRT:initializers.obj
 0002:000004e8       __xt_z                     00000001800194e8     MSVCRT:initializers.obj
 0002:000004f0       __real@41a935fb7a000000    00000001800194f0     HardwareDeploymentTest_sfun.obj
 0002:000004f8       __real@41b82a9620000000    00000001800194f8     HardwareDeploymentTest_sfun.obj
 0002:00000500       __real@41c25c6bf7000000    0000000180019500     HardwareDeploymentTest_sfun.obj
 0002:00000508       __real@41cbd77184800000    0000000180019508     HardwareDeploymentTest_sfun.obj
 0002:00000510       __real@41cd990c76800000    0000000180019510     HardwareDeploymentTest_sfun.obj
 0002:00000518       __real@41d4eedbe9400000    0000000180019518     HardwareDeploymentTest_sfun.obj
 0002:00000520       __real@41d6fe0789400000    0000000180019520     HardwareDeploymentTest_sfun.obj
 0002:00000528       __real@41dcebf61ec00000    0000000180019528     HardwareDeploymentTest_sfun.obj
 0002:00000530       __real@41e42c3954400000    0000000180019530     HardwareDeploymentTest_sfun.obj
 0002:00000538       __real@41e56031d0600000    0000000180019538     HardwareDeploymentTest_sfun.obj
 0002:00000540       __real@41e87d4291000000    0000000180019540     HardwareDeploymentTest_sfun.obj
 0002:00000548       __real@41ea17ee9fa00000    0000000180019548     HardwareDeploymentTest_sfun.obj
 0002:00000558       __real@3ff0000000000000    0000000180019558     c4_HardwareDeploymentTest.obj
 0002:00000560       __real@4000000000000000    0000000180019560     c4_HardwareDeploymentTest.obj
 0002:00000568       __real@406fe00000000000    0000000180019568     c4_HardwareDeploymentTest.obj
 0002:00000570       __real@40d2c00000000000    0000000180019570     c4_HardwareDeploymentTest.obj
 0002:00000578       __real@41e27cf6ffa00000    0000000180019578     c4_HardwareDeploymentTest.obj
 0002:00000580       __real@41e7b4baafe00000    0000000180019580     c4_HardwareDeploymentTest.obj
 0002:00000588       __real@41e854ecefc00000    0000000180019588     c4_HardwareDeploymentTest.obj
 0002:00000590       __real@41ef0a69e5800000    0000000180019590     c4_HardwareDeploymentTest.obj
 0002:000005a0       __xmm@80000000000000008000000000000000 00000001800195a0     c4_HardwareDeploymentTest.obj
 0002:000005b8       __real@0000000000000000    00000001800195b8     c11_HardwareDeploymentTest.obj
 0002:000005c0       __real@4070000000000000    00000001800195c0     c11_HardwareDeploymentTest.obj
 0002:000005c8       __real@40cc200000000000    00000001800195c8     c11_HardwareDeploymentTest.obj
 0002:000005d0       __real@41e5aa961c200000    00000001800195d0     c11_HardwareDeploymentTest.obj
 0002:000005d8       __real@41e776cb2b800000    00000001800195d8     c11_HardwareDeploymentTest.obj
 0002:000005e0       __real@41ed646f0f400000    00000001800195e0     c11_HardwareDeploymentTest.obj
 0002:000005e8       __real@41ed7d7445200000    00000001800195e8     c11_HardwareDeploymentTest.obj
 0002:000005f8       __real@41dc5753e3400000    00000001800195f8     c14_HardwareDeploymentTest.obj
 0002:00000600       __real@41e6592195c00000    0000000180019600     c14_HardwareDeploymentTest.obj
 0002:00000608       __real@41e700b052600000    0000000180019608     c14_HardwareDeploymentTest.obj
 0002:00000610       __real@41ecc98c57400000    0000000180019610     c14_HardwareDeploymentTest.obj
 0002:00000618       DYNAMIC_DIMENSION_DEF      0000000180019618     HardwareDeploymentTest_sfun_registry.obj
 0002:00000630       __real@4010000000000000    0000000180019630     HardwareDeploymentTest_sfun_registry.obj
 0002:00000638       __real@41602cbca0000000    0000000180019638     HardwareDeploymentTest_sfun_registry.obj
 0002:00000640       __real@bff0000000000000    0000000180019640     HardwareDeploymentTest_sfun_registry.obj
 0002:00000658       _pDefaultRawDllMain        0000000180019658     MSVCRT:dll_dllmain.obj
 0002:00000658       _pRawDllMain               0000000180019658     MSVCRT:dll_dllmain.obj
 0002:00000660       __xmm@ffffffffffffffffffffffffffffffff 0000000180019660     MSVCRT:utility.obj
 0002:00000670       _load_config_used          0000000180019670     MSVCRT:loadcfg.obj
 0002:00000800       __CastGuardVftablesStart   0000000180019800     MSVCRT:guard_support.obj
 0002:00000880       __CastGuardVftablesEnd     0000000180019880     MSVCRT:guard_support.obj
 0002:00000900       __volatile_metadata        0000000180019900     <linker-defined>
 0002:00000d40       __rtc_iaa                  0000000180019d40     MSVCRT:initsect.obj
 0002:00000d48       __rtc_izz                  0000000180019d48     MSVCRT:initsect.obj
 0002:00000d50       __rtc_taa                  0000000180019d50     MSVCRT:initsect.obj
 0002:00000d58       __rtc_tzz                  0000000180019d58     MSVCRT:initsect.obj
 0002:00001a18       __IMPORT_DESCRIPTOR_libmwgrayto8 000000018001aa18     libmwgrayto8:libmwgrayto8.dll
 0002:00001a2c       __IMPORT_DESCRIPTOR_libmwrgb2gray_tbb 000000018001aa2c     libmwrgb2gray_tbb:libmwrgb2gray_tbb.dll
 0002:00001a40       __IMPORT_DESCRIPTOR_libmwgetnumcores 000000018001aa40     libmwgetnumcores:libmwgetnumcores.dll
 0002:00001a54       __IMPORT_DESCRIPTOR_sf_runtime 000000018001aa54     sf_runtime:sf_runtime.dll
 0002:00001a68       __IMPORT_DESCRIPTOR_libmx  000000018001aa68     libmx:libmx.dll
 0002:00001a7c       __IMPORT_DESCRIPTOR_libmex 000000018001aa7c     libmex:libmex.dll
 0002:00001a90       __IMPORT_DESCRIPTOR_libut  000000018001aa90     libut:libut.dll
 0002:00001aa4       __IMPORT_DESCRIPTOR_libmwmathutil 000000018001aaa4     libmwmathutil:libmwmathutil.dll
 0002:00001ab8       __IMPORT_DESCRIPTOR_libemlrt 000000018001aab8     libemlrt:libemlrt.dll
 0002:00001acc       __IMPORT_DESCRIPTOR_libcovrt 000000018001aacc     libcovrt:libcovrt.dll
 0002:00001ae0       __IMPORT_DESCRIPTOR_KERNEL32 000000018001aae0     kernel32:KERNEL32.dll
 0002:00001af4       __IMPORT_DESCRIPTOR_VCRUNTIME140 000000018001aaf4     vcruntime:VCRUNTIME140.dll
 0002:00001b08       __IMPORT_DESCRIPTOR_api-ms-win-crt-string-l1-1-0 000000018001ab08     ucrt:api-ms-win-crt-string-l1-1-0.dll
 0002:00001b1c       __IMPORT_DESCRIPTOR_api-ms-win-crt-stdio-l1-1-0 000000018001ab1c     ucrt:api-ms-win-crt-stdio-l1-1-0.dll
 0002:00001b30       __IMPORT_DESCRIPTOR_api-ms-win-crt-heap-l1-1-0 000000018001ab30     ucrt:api-ms-win-crt-heap-l1-1-0.dll
 0002:00001b44       __IMPORT_DESCRIPTOR_api-ms-win-crt-runtime-l1-1-0 000000018001ab44     ucrt:api-ms-win-crt-runtime-l1-1-0.dll
 0002:00001b58       __NULL_IMPORT_DESCRIPTOR   000000018001ab58     libmwgrayto8:libmwgrayto8.dll
 0003:00006af0       DYNAMIC_DIMENSION          0000000180022af0     HardwareDeploymentTest_sfun_registry.obj
 0003:00009100       __security_cookie_complement 0000000180025100     MSVCRT:gs_cookie.obj
 0003:00009108       __security_cookie          0000000180025108     MSVCRT:gs_cookie.obj
 0003:00009110       _fltused                   0000000180025110     MSVCRT:fltused.obj
 0003:00009120       __scrt_native_dllmain_reason 0000000180025120     MSVCRT:utility.obj
 0003:00009128       __isa_available            0000000180025128     MSVCRT:cpu_disp.obj
 0003:0000912c       __isa_enabled              000000018002512c     MSVCRT:cpu_disp.obj
 0003:00009130       __memset_fast_string_threshold 0000000180025130     MSVCRT:cpu_disp.obj
 0003:00009138       __memset_nt_threshold      0000000180025138     MSVCRT:cpu_disp.obj
 0003:00009140       __scrt_ucrt_dll_is_in_use  0000000180025140     MSVCRT:ucrt_stubs.obj
 0003:0000a8a0       ?__type_info_root_node@@3U__type_info_node@@A 00000001800268a0     MSVCRT:tncleanup.obj
 0003:0000a8b0       ?_OptionsStorage@?1??__local_stdio_printf_options@@9@4_KA 00000001800268b0     MSVCRT:default_local_stdio_options.obj
 0003:0000a8b8       ?_OptionsStorage@?1??__local_stdio_scanf_options@@9@4_KA 00000001800268b8     MSVCRT:default_local_stdio_options.obj
 0003:0000a8c0       __scrt_current_native_startup_state 00000001800268c0     MSVCRT:utility.obj
 0003:0000a8c8       __scrt_native_startup_lock 00000001800268c8     MSVCRT:utility.obj
 0003:0000a908       __scrt_debugger_hook_flag  0000000180026908     MSVCRT:utility_desktop.obj
 0003:0000a90c       __favor                    000000018002690c     MSVCRT:cpu_disp.obj
 0003:0000a910       ?_OptionsStorage@?1??__local_stdio_printf_options@@9@9 0000000180026910     <common>
 0003:0000a918       __dyn_tls_init_callback    0000000180026918     <common>

 entry point at        0001:00016764

 Static symbols

 0000:00000000       .debug$S                   0000000180000000     HardwareDeploymentTest_sfun.exp
 0000:00000000       _volmd                     0000000180000000     HardwareDeploymentTest_sfun.obj
 0000:00000000       _volmd                     0000000180000000     HardwareDeploymentTest_sfun_registry.obj
 0000:00000000       _volmd                     0000000180000000     c11_HardwareDeploymentTest.obj
 0000:00000000       _volmd                     0000000180000000     c14_HardwareDeploymentTest.obj
 0000:00000000       _volmd                     0000000180000000     c4_HardwareDeploymentTest.obj
 0000:00000000       .debug$S                   0000000180000000     ucrt:api-ms-win-crt-heap-l1-1-0.dll
 0000:00000000       .debug$S                   0000000180000000     ucrt:api-ms-win-crt-heap-l1-1-0.dll
 0000:00000000       .debug$S                   0000000180000000     ucrt:api-ms-win-crt-runtime-l1-1-0.dll
 0000:00000000       .debug$S                   0000000180000000     ucrt:api-ms-win-crt-runtime-l1-1-0.dll
 0000:00000000       .debug$S                   0000000180000000     ucrt:api-ms-win-crt-runtime-l1-1-0.dll
 0000:00000000       .debug$S                   0000000180000000     ucrt:api-ms-win-crt-runtime-l1-1-0.dll
 0000:00000000       .debug$S                   0000000180000000     ucrt:api-ms-win-crt-runtime-l1-1-0.dll
 0000:00000000       .debug$S                   0000000180000000     ucrt:api-ms-win-crt-runtime-l1-1-0.dll
 0000:00000000       .debug$S                   0000000180000000     ucrt:api-ms-win-crt-runtime-l1-1-0.dll
 0000:00000000       .debug$S                   0000000180000000     ucrt:api-ms-win-crt-runtime-l1-1-0.dll
 0000:00000000       .debug$S                   0000000180000000     ucrt:api-ms-win-crt-runtime-l1-1-0.dll
 0000:00000000       .debug$S                   0000000180000000     ucrt:api-ms-win-crt-runtime-l1-1-0.dll
 0000:00000000       .debug$S                   0000000180000000     ucrt:api-ms-win-crt-runtime-l1-1-0.dll
 0000:00000000       .debug$S                   0000000180000000     ucrt:api-ms-win-crt-runtime-l1-1-0.dll
 0000:00000000       .debug$S                   0000000180000000     ucrt:api-ms-win-crt-stdio-l1-1-0.dll
 0000:00000000       .debug$S                   0000000180000000     ucrt:api-ms-win-crt-string-l1-1-0.dll
 0000:00000000       .debug$S                   0000000180000000     ucrt:api-ms-win-crt-string-l1-1-0.dll
 0000:00000000       .debug$S                   0000000180000000     ucrt:api-ms-win-crt-string-l1-1-0.dll
 0000:00000000       .debug$S                   0000000180000000     kernel32:KERNEL32.dll
 0000:00000000       .debug$S                   0000000180000000     kernel32:KERNEL32.dll
 0000:00000000       .debug$S                   0000000180000000     kernel32:KERNEL32.dll
 0000:00000000       .debug$S                   0000000180000000     kernel32:KERNEL32.dll
 0000:00000000       .debug$S                   0000000180000000     kernel32:KERNEL32.dll
 0000:00000000       .debug$S                   0000000180000000     kernel32:KERNEL32.dll
 0000:00000000       .debug$S                   0000000180000000     kernel32:KERNEL32.dll
 0000:00000000       .debug$S                   0000000180000000     kernel32:KERNEL32.dll
 0000:00000000       .debug$S                   0000000180000000     kernel32:KERNEL32.dll
 0000:00000000       .debug$S                   0000000180000000     kernel32:KERNEL32.dll
 0000:00000000       .debug$S                   0000000180000000     kernel32:KERNEL32.dll
 0000:00000000       .debug$S                   0000000180000000     kernel32:KERNEL32.dll
 0000:00000000       .debug$S                   0000000180000000     kernel32:KERNEL32.dll
 0000:00000000       .debug$S                   0000000180000000     kernel32:KERNEL32.dll
 0000:00000000       .debug$S                   0000000180000000     kernel32:KERNEL32.dll
 0000:00000000       .debug$S                   0000000180000000     kernel32:KERNEL32.dll
 0000:00000000       .debug$S                   0000000180000000     kernel32:KERNEL32.dll
 0000:00000000       .debug$S                   0000000180000000     libcovrt:libcovrt.dll
 0000:00000000       .debug$S                   0000000180000000     libcovrt:libcovrt.dll
 0000:00000000       .debug$S                   0000000180000000     libcovrt:libcovrt.dll
 0000:00000000       .debug$S                   0000000180000000     libcovrt:libcovrt.dll
 0000:00000000       .debug$S                   0000000180000000     libcovrt:libcovrt.dll
 0000:00000000       .debug$S                   0000000180000000     libcovrt:libcovrt.dll
 0000:00000000       .debug$S                   0000000180000000     libcovrt:libcovrt.dll
 0000:00000000       .debug$S                   0000000180000000     libcovrt:libcovrt.dll
 0000:00000000       .debug$S                   0000000180000000     libcovrt:libcovrt.dll
 0000:00000000       .debug$S                   0000000180000000     libcovrt:libcovrt.dll
 0000:00000000       .debug$S                   0000000180000000     libcovrt:libcovrt.dll
 0000:00000000       .debug$S                   0000000180000000     libemlrt:libemlrt.dll
 0000:00000000       .debug$S                   0000000180000000     libemlrt:libemlrt.dll
 0000:00000000       .debug$S                   0000000180000000     libemlrt:libemlrt.dll
 0000:00000000       .debug$S                   0000000180000000     libmex:libmex.dll
 0000:00000000       .debug$S                   0000000180000000     libmex:libmex.dll
 0000:00000000       .debug$S                   0000000180000000     libmex:libmex.dll
 0000:00000000       .debug$S                   0000000180000000     libmex:libmex.dll
 0000:00000000       .debug$S                   0000000180000000     libmex:libmex.dll
 0000:00000000       .debug$S                   0000000180000000     libmex:libmex.dll
 0000:00000000       .debug$S                   0000000180000000     libmex:libmex.dll
 0000:00000000       .debug$S                   0000000180000000     libmwgetnumcores:libmwgetnumcores.dll
 0000:00000000       .debug$S                   0000000180000000     libmwgrayto8:libmwgrayto8.dll
 0000:00000000       .debug$S                   0000000180000000     libmwmathutil:libmwmathutil.dll
 0000:00000000       .debug$S                   0000000180000000     libmwmathutil:libmwmathutil.dll
 0000:00000000       .debug$S                   0000000180000000     libmwmathutil:libmwmathutil.dll
 0000:00000000       .debug$S                   0000000180000000     libmwmathutil:libmwmathutil.dll
 0000:00000000       .debug$S                   0000000180000000     libmwrgb2gray_tbb:libmwrgb2gray_tbb.dll
 0000:00000000       .debug$S                   0000000180000000     libmx:libmx.dll
 0000:00000000       .debug$S                   0000000180000000     libmx:libmx.dll
 0000:00000000       .debug$S                   0000000180000000     libmx:libmx.dll
 0000:00000000       .debug$S                   0000000180000000     libmx:libmx.dll
 0000:00000000       .debug$S                   0000000180000000     libmx:libmx.dll
 0000:00000000       .debug$S                   0000000180000000     libmx:libmx.dll
 0000:00000000       .debug$S                   0000000180000000     libmx:libmx.dll
 0000:00000000       .debug$S                   0000000180000000     libmx:libmx.dll
 0000:00000000       .debug$S                   0000000180000000     libmx:libmx.dll
 0000:00000000       .debug$S                   0000000180000000     libmx:libmx.dll
 0000:00000000       .debug$S                   0000000180000000     libmx:libmx.dll
 0000:00000000       .debug$S                   0000000180000000     libmx:libmx.dll
 0000:00000000       .debug$S                   0000000180000000     libmx:libmx.dll
 0000:00000000       .debug$S                   0000000180000000     libmx:libmx.dll
 0000:00000000       .debug$S                   0000000180000000     libmx:libmx.dll
 0000:00000000       .debug$S                   0000000180000000     libmx:libmx.dll
 0000:00000000       .debug$S                   0000000180000000     libmx:libmx.dll
 0000:00000000       .debug$S                   0000000180000000     libmx:libmx.dll
 0000:00000000       .debug$S                   0000000180000000     libmx:libmx.dll
 0000:00000000       .debug$S                   0000000180000000     libmx:libmx.dll
 0000:00000000       .debug$S                   0000000180000000     libut:libut.dll
 0000:00000000       .debug$S                   0000000180000000     libut:libut.dll
 0000:00000000       .debug$S                   0000000180000000     sf_runtime:sf_runtime.dll
 0000:00000000       .debug$S                   0000000180000000     sf_runtime:sf_runtime.dll
 0000:00000000       .debug$S                   0000000180000000     sf_runtime:sf_runtime.dll
 0000:00000000       .debug$S                   0000000180000000     sf_runtime:sf_runtime.dll
 0000:00000000       .debug$S                   0000000180000000     sf_runtime:sf_runtime.dll
 0000:00000000       .debug$S                   0000000180000000     sf_runtime:sf_runtime.dll
 0000:00000000       .debug$S                   0000000180000000     sf_runtime:sf_runtime.dll
 0000:00000000       .debug$S                   0000000180000000     sf_runtime:sf_runtime.dll
 0000:00000000       .debug$S                   0000000180000000     sf_runtime:sf_runtime.dll
 0000:00000000       .debug$S                   0000000180000000     sf_runtime:sf_runtime.dll
 0000:00000000       .debug$S                   0000000180000000     sf_runtime:sf_runtime.dll
 0000:00000000       .debug$S                   0000000180000000     sf_runtime:sf_runtime.dll
 0000:00000000       .debug$S                   0000000180000000     sf_runtime:sf_runtime.dll
 0000:00000000       .debug$S                   0000000180000000     sf_runtime:sf_runtime.dll
 0000:00000000       .debug$S                   0000000180000000     sf_runtime:sf_runtime.dll
 0000:00000000       .debug$S                   0000000180000000     sf_runtime:sf_runtime.dll
 0000:00000000       .debug$S                   0000000180000000     sf_runtime:sf_runtime.dll
 0000:00000000       .debug$S                   0000000180000000     sf_runtime:sf_runtime.dll
 0000:00000000       .debug$S                   0000000180000000     sf_runtime:sf_runtime.dll
 0000:00000000       .debug$S                   0000000180000000     sf_runtime:sf_runtime.dll
 0000:00000000       .debug$S                   0000000180000000     sf_runtime:sf_runtime.dll
 0000:00000000       .debug$S                   0000000180000000     sf_runtime:sf_runtime.dll
 0000:00000000       .debug$S                   0000000180000000     sf_runtime:sf_runtime.dll
 0000:00000000       .debug$S                   0000000180000000     sf_runtime:sf_runtime.dll
 0000:00000000       .debug$S                   0000000180000000     sf_runtime:sf_runtime.dll
 0000:00000000       .debug$S                   0000000180000000     sf_runtime:sf_runtime.dll
 0000:00000000       .debug$S                   0000000180000000     sf_runtime:sf_runtime.dll
 0000:00000000       .debug$S                   0000000180000000     sf_runtime:sf_runtime.dll
 0000:00000000       .debug$S                   0000000180000000     sf_runtime:sf_runtime.dll
 0000:00000000       .debug$S                   0000000180000000     sf_runtime:sf_runtime.dll
 0000:00000000       .debug$S                   0000000180000000     sf_runtime:sf_runtime.dll
 0000:00000000       .debug$S                   0000000180000000     sf_runtime:sf_runtime.dll
 0000:00000000       .debug$S                   0000000180000000     sf_runtime:sf_runtime.dll
 0000:00000000       .debug$S                   0000000180000000     sf_runtime:sf_runtime.dll
 0000:00000000       .debug$S                   0000000180000000     sf_runtime:sf_runtime.dll
 0000:00000000       .debug$S                   0000000180000000     sf_runtime:sf_runtime.dll
 0000:00000000       _volmd                     0000000180000000     MSVCRT:cpu_disp.obj
 0002:fffe7000       __guard_ehcont_?dllmain_dispatch@@YAHQEAUHINSTANCE__@@KQEAX@Z 0000000180000000     MSVCRT:dll_dllmain.obj
 0002:fffe7000       __guard_fids_?dllmain_dispatch@@YAHQEAUHINSTANCE__@@KQEAX@Z 0000000180000000     MSVCRT:dll_dllmain.obj
 0000:00000000       _volmd                     0000000180000000     MSVCRT:gs_report.obj
 0000:00000000       _volmd                     0000000180000000     MSVCRT:gs_report.obj
 0000:00000000       _volmd                     0000000180000000     MSVCRT:gs_report.obj
 0002:fffe7000       __guard_fids__             0000000180000000     MSVCRT:guard_support.obj
 0002:fffe7000       __guard_fids__             0000000180000000     MSVCRT:guard_support.obj
 0002:fffe7000       __guard_fids__guard_icall_checks_enforced 0000000180000000     MSVCRT:guard_support.obj
 0000:00000000       _volmd                     0000000180000000     MSVCRT:guard_support.obj
 0000:00000000       _volmd                     0000000180000000     MSVCRT:guard_support.obj
 0000:00000000       _volmd                     0000000180000000     MSVCRT:guard_support.obj
 0000:00000000       _volmd                     0000000180000000     MSVCRT:guard_support.obj
 0000:00000000       _volmd                     0000000180000000     MSVCRT:guard_support.obj
 0000:00000000       _volmd                     0000000180000000     MSVCRT:guard_support.obj
 0002:fffe7000       __guard_ehcont___scrt_is_nonwritable_in_current_image 0000000180000000     MSVCRT:utility.obj
 0000:00000000       _volmd                     0000000180000000     MSVCRT:utility.obj
 0000:00000000       _volmd                     0000000180000000     MSVCRT:utility.obj
 0000:00000000       _volmd                     0000000180000000     MSVCRT:utility.obj
 0002:fffe7000       __guard_fids___scrt_set_unhandled_exception_filter 0000000180000000     MSVCRT:utility_desktop.obj
 0000:00000000       _volmd                     0000000180000000     MSVCRT:utility_desktop.obj
 0002:fffe7000       __guard_fids__             0000000180000000     vcruntime:softmemtag.obj
 0000:00000000       .debug$S                   0000000180000000     vcruntime:VCRUNTIME140.dll
 0000:00000000       .debug$S                   0000000180000000     vcruntime:VCRUNTIME140.dll
 0000:00000000       .debug$S                   0000000180000000     vcruntime:VCRUNTIME140.dll
 0000:00000000       .debug$S                   0000000180000000     vcruntime:VCRUNTIME140.dll
 0000:00000000       .debug$S                   0000000180000000     vcruntime:VCRUNTIME140.dll
 0000:00000000       .debug$S                   0000000180000000     vcruntime:VCRUNTIME140.dll
 0000:00000010       _volmd                     0000000180000010     HardwareDeploymentTest_sfun.obj
 0000:00000010       _volmd                     0000000180000010     HardwareDeploymentTest_sfun_registry.obj
 0000:00000010       _volmd                     0000000180000010     c11_HardwareDeploymentTest.obj
 0000:00000010       _volmd                     0000000180000010     c14_HardwareDeploymentTest.obj
 0000:00000010       _volmd                     0000000180000010     c4_HardwareDeploymentTest.obj
 0000:00000020       _volmd                     0000000180000020     HardwareDeploymentTest_sfun.obj
 0000:00000020       _volmd                     0000000180000020     HardwareDeploymentTest_sfun_registry.obj
 0000:00000020       _volmd                     0000000180000020     c11_HardwareDeploymentTest.obj
 0000:00000020       _volmd                     0000000180000020     c14_HardwareDeploymentTest.obj
 0000:00000020       _volmd                     0000000180000020     c4_HardwareDeploymentTest.obj
 0000:00000030       _volmd                     0000000180000030     HardwareDeploymentTest_sfun.obj
 0000:00000030       _volmd                     0000000180000030     HardwareDeploymentTest_sfun_registry.obj
 0000:00000030       _volmd                     0000000180000030     c11_HardwareDeploymentTest.obj
 0000:00000030       _volmd                     0000000180000030     c14_HardwareDeploymentTest.obj
 0000:00000030       _volmd                     0000000180000030     c4_HardwareDeploymentTest.obj
 0000:00000040       _volmd                     0000000180000040     HardwareDeploymentTest_sfun.obj
 0000:00000040       _volmd                     0000000180000040     HardwareDeploymentTest_sfun_registry.obj
 0000:00000040       _volmd                     0000000180000040     c11_HardwareDeploymentTest.obj
 0000:00000040       _volmd                     0000000180000040     c14_HardwareDeploymentTest.obj
 0000:00000050       _volmd                     0000000180000050     HardwareDeploymentTest_sfun.obj
 0000:00000050       _volmd                     0000000180000050     HardwareDeploymentTest_sfun_registry.obj
 0000:00000060       _volmd                     0000000180000060     HardwareDeploymentTest_sfun_registry.obj
 0000:00000070       _volmd                     0000000180000070     HardwareDeploymentTest_sfun_registry.obj
 0000:00000080       _volmd                     0000000180000080     HardwareDeploymentTest_sfun_registry.obj
 0000:00000090       _volmd                     0000000180000090     HardwareDeploymentTest_sfun_registry.obj
 0000:000000a0       _volmd                     00000001800000a0     HardwareDeploymentTest_sfun_registry.obj
 0000:000000b0       _volmd                     00000001800000b0     HardwareDeploymentTest_sfun_registry.obj
 0000:000000c0       _volmd                     00000001800000c0     HardwareDeploymentTest_sfun_registry.obj
 0000:000000d0       _volmd                     00000001800000d0     HardwareDeploymentTest_sfun_registry.obj
 0000:000000e0       _volmd                     00000001800000e0     HardwareDeploymentTest_sfun_registry.obj
 0000:000000f0       _volmd                     00000001800000f0     HardwareDeploymentTest_sfun_registry.obj
 0000:00000100       _volmd                     0000000180000100     HardwareDeploymentTest_sfun_registry.obj
 0001:00001440       initialize_c4_HardwareDeploymentTest 0000000180002440 f   c4_HardwareDeploymentTest.obj
 0001:000014e0       initialize_params_c4_HardwareDeploymentTest 00000001800024e0 f   c4_HardwareDeploymentTest.obj
 0001:000014f0       mdl_start_c4_HardwareDeploymentTest 00000001800024f0 f   c4_HardwareDeploymentTest.obj
 0001:00001520       mdl_terminate_c4_HardwareDeploymentTest 0000000180002520 f   c4_HardwareDeploymentTest.obj
 0001:00001530       mdl_setup_runtime_resources_c4_HardwareDeploymentTest 0000000180002530 f   c4_HardwareDeploymentTest.obj
 0001:00001710       mdl_cleanup_runtime_resources_c4_HardwareDeploymentTest 0000000180002710 f   c4_HardwareDeploymentTest.obj
 0001:00001740       enable_c4_HardwareDeploymentTest 0000000180002740 f   c4_HardwareDeploymentTest.obj
 0001:00001770       disable_c4_HardwareDeploymentTest 0000000180002770 f   c4_HardwareDeploymentTest.obj
 0001:000017a0       sf_gateway_c4_HardwareDeploymentTest 00000001800027a0 f   c4_HardwareDeploymentTest.obj
 0001:00003e80       get_sim_state_c4_HardwareDeploymentTest 0000000180004e80 f   c4_HardwareDeploymentTest.obj
 0001:00003f70       set_sim_state_c4_HardwareDeploymentTest 0000000180004f70 f   c4_HardwareDeploymentTest.obj
 0001:00004050       c4_emlrt_marshallIn        0000000180005050 f   c4_HardwareDeploymentTest.obj
 0001:000040c0       c4_b_emlrt_marshallIn      00000001800050c0 f   c4_HardwareDeploymentTest.obj
 0001:000041c0       init_dsm_address_info      00000001800051c0 f   c4_HardwareDeploymentTest.obj
 0001:000041d0       init_simulink_io_address   00000001800051d0 f   c4_HardwareDeploymentTest.obj
 0001:00004480       sf_get_sim_state_info_c4_HardwareDeploymentTest 0000000180005480 f   c4_HardwareDeploymentTest.obj
 0001:00004540       sf_opaque_initialize_c4_HardwareDeploymentTest 0000000180005540 f   c4_HardwareDeploymentTest.obj
 0001:00004570       sf_opaque_enable_c4_HardwareDeploymentTest 0000000180005570 f   c4_HardwareDeploymentTest.obj
 0001:00004590       sf_opaque_disable_c4_HardwareDeploymentTest 0000000180005590 f   c4_HardwareDeploymentTest.obj
 0001:000045b0       sf_opaque_gateway_c4_HardwareDeploymentTest 00000001800055b0 f   c4_HardwareDeploymentTest.obj
 0001:000045d0       sf_opaque_get_sim_state_c4_HardwareDeploymentTest 00000001800055d0 f   c4_HardwareDeploymentTest.obj
 0001:00004600       sf_opaque_set_sim_state_c4_HardwareDeploymentTest 0000000180005600 f   c4_HardwareDeploymentTest.obj
 0001:00004630       sf_opaque_cleanup_runtime_resources_c4_HardwareDeploymentTest 0000000180005630 f   c4_HardwareDeploymentTest.obj
 0001:000046d0       sf_opaque_mdl_start_c4_HardwareDeploymentTest 00000001800056d0 f   c4_HardwareDeploymentTest.obj
 0001:00004710       sf_opaque_mdl_terminate_c4_HardwareDeploymentTest 0000000180005710 f   c4_HardwareDeploymentTest.obj
 0001:00004730       mdlProcessParameters_c4_HardwareDeploymentTest 0000000180005730 f   c4_HardwareDeploymentTest.obj
 0001:00004930       mdlSetWorkWidths_c4_HardwareDeploymentTest 0000000180005930 f   c4_HardwareDeploymentTest.obj
 0001:000049c0       mdlRTW_c4_HardwareDeploymentTest 00000001800059c0 f   c4_HardwareDeploymentTest.obj
 0001:00004a00       mdlSetupRuntimeResources_c4_HardwareDeploymentTest 0000000180005a00 f   c4_HardwareDeploymentTest.obj
 0001:00004e20       initialize_c11_HardwareDeploymentTest 0000000180005e20 f   c11_HardwareDeploymentTest.obj
 0001:00004ec0       initialize_params_c11_HardwareDeploymentTest 0000000180005ec0 f   c11_HardwareDeploymentTest.obj
 0001:00004ed0       mdl_start_c11_HardwareDeploymentTest 0000000180005ed0 f   c11_HardwareDeploymentTest.obj
 0001:00004f00       mdl_terminate_c11_HardwareDeploymentTest 0000000180005f00 f   c11_HardwareDeploymentTest.obj
 0001:00004f10       mdl_setup_runtime_resources_c11_HardwareDeploymentTest 0000000180005f10 f   c11_HardwareDeploymentTest.obj
 0001:00005130       mdl_cleanup_runtime_resources_c11_HardwareDeploymentTest 0000000180006130 f   c11_HardwareDeploymentTest.obj
 0001:00005160       enable_c11_HardwareDeploymentTest 0000000180006160 f   c11_HardwareDeploymentTest.obj
 0001:00005190       disable_c11_HardwareDeploymentTest 0000000180006190 f   c11_HardwareDeploymentTest.obj
 0001:000051c0       sf_gateway_c11_HardwareDeploymentTest 00000001800061c0 f   c11_HardwareDeploymentTest.obj
 0001:00005eb0       get_sim_state_c11_HardwareDeploymentTest 0000000180006eb0 f   c11_HardwareDeploymentTest.obj
 0001:00006370       set_sim_state_c11_HardwareDeploymentTest 0000000180007370 f   c11_HardwareDeploymentTest.obj
 0001:000067c0       c11_emlrt_marshallIn       00000001800077c0 f   c11_HardwareDeploymentTest.obj
 0001:00006830       c11_b_emlrt_marshallIn     0000000180007830 f   c11_HardwareDeploymentTest.obj
 0001:00006930       c11__s32_add__             0000000180007930 f   c11_HardwareDeploymentTest.obj
 0001:000069a0       c11__s32_minus__           00000001800079a0 f   c11_HardwareDeploymentTest.obj
 0001:00006a10       init_dsm_address_info      0000000180007a10 f   c11_HardwareDeploymentTest.obj
 0001:00006a20       init_simulink_io_address   0000000180007a20 f   c11_HardwareDeploymentTest.obj
 0001:00006d90       sf_get_sim_state_info_c11_HardwareDeploymentTest 0000000180007d90 f   c11_HardwareDeploymentTest.obj
 0001:00006e50       sf_opaque_initialize_c11_HardwareDeploymentTest 0000000180007e50 f   c11_HardwareDeploymentTest.obj
 0001:00006e80       sf_opaque_enable_c11_HardwareDeploymentTest 0000000180007e80 f   c11_HardwareDeploymentTest.obj
 0001:00006ea0       sf_opaque_disable_c11_HardwareDeploymentTest 0000000180007ea0 f   c11_HardwareDeploymentTest.obj
 0001:00006ec0       sf_opaque_gateway_c11_HardwareDeploymentTest 0000000180007ec0 f   c11_HardwareDeploymentTest.obj
 0001:00006ee0       sf_opaque_get_sim_state_c11_HardwareDeploymentTest 0000000180007ee0 f   c11_HardwareDeploymentTest.obj
 0001:00006f10       sf_opaque_set_sim_state_c11_HardwareDeploymentTest 0000000180007f10 f   c11_HardwareDeploymentTest.obj
 0001:00006f40       sf_opaque_cleanup_runtime_resources_c11_HardwareDeploymentTest 0000000180007f40 f   c11_HardwareDeploymentTest.obj
 0001:00006fe0       sf_opaque_mdl_start_c11_HardwareDeploymentTest 0000000180007fe0 f   c11_HardwareDeploymentTest.obj
 0001:00007020       sf_opaque_mdl_terminate_c11_HardwareDeploymentTest 0000000180008020 f   c11_HardwareDeploymentTest.obj
 0001:00007040       mdlProcessParameters_c11_HardwareDeploymentTest 0000000180008040 f   c11_HardwareDeploymentTest.obj
 0001:00007250       mdlSetWorkWidths_c11_HardwareDeploymentTest 0000000180008250 f   c11_HardwareDeploymentTest.obj
 0001:000072e0       mdlRTW_c11_HardwareDeploymentTest 00000001800082e0 f   c11_HardwareDeploymentTest.obj
 0001:00007320       mdlSetupRuntimeResources_c11_HardwareDeploymentTest 0000000180008320 f   c11_HardwareDeploymentTest.obj
 0001:00007740       initialize_c14_HardwareDeploymentTest 0000000180008740 f   c14_HardwareDeploymentTest.obj
 0001:000077e0       initialize_params_c14_HardwareDeploymentTest 00000001800087e0 f   c14_HardwareDeploymentTest.obj
 0001:000077f0       mdl_start_c14_HardwareDeploymentTest 00000001800087f0 f   c14_HardwareDeploymentTest.obj
 0001:00007820       mdl_terminate_c14_HardwareDeploymentTest 0000000180008820 f   c14_HardwareDeploymentTest.obj
 0001:00007830       mdl_setup_runtime_resources_c14_HardwareDeploymentTest 0000000180008830 f   c14_HardwareDeploymentTest.obj
 0001:00007a10       mdl_cleanup_runtime_resources_c14_HardwareDeploymentTest 0000000180008a10 f   c14_HardwareDeploymentTest.obj
 0001:00007a40       enable_c14_HardwareDeploymentTest 0000000180008a40 f   c14_HardwareDeploymentTest.obj
 0001:00007a70       disable_c14_HardwareDeploymentTest 0000000180008a70 f   c14_HardwareDeploymentTest.obj
 0001:00007aa0       sf_gateway_c14_HardwareDeploymentTest 0000000180008aa0 f   c14_HardwareDeploymentTest.obj
 0001:0000a190       get_sim_state_c14_HardwareDeploymentTest 000000018000b190 f   c14_HardwareDeploymentTest.obj
 0001:0000a280       set_sim_state_c14_HardwareDeploymentTest 000000018000b280 f   c14_HardwareDeploymentTest.obj
 0001:0000a370       c14_emlrt_marshallIn       000000018000b370 f   c14_HardwareDeploymentTest.obj
 0001:0000a3e0       c14_b_emlrt_marshallIn     000000018000b3e0 f   c14_HardwareDeploymentTest.obj
 0001:0000a4e0       init_dsm_address_info      000000018000b4e0 f   c14_HardwareDeploymentTest.obj
 0001:0000a4f0       init_simulink_io_address   000000018000b4f0 f   c14_HardwareDeploymentTest.obj
 0001:0000a780       sf_get_sim_state_info_c14_HardwareDeploymentTest 000000018000b780 f   c14_HardwareDeploymentTest.obj
 0001:0000a840       sf_opaque_initialize_c14_HardwareDeploymentTest 000000018000b840 f   c14_HardwareDeploymentTest.obj
 0001:0000a870       sf_opaque_enable_c14_HardwareDeploymentTest 000000018000b870 f   c14_HardwareDeploymentTest.obj
 0001:0000a890       sf_opaque_disable_c14_HardwareDeploymentTest 000000018000b890 f   c14_HardwareDeploymentTest.obj
 0001:0000a8b0       sf_opaque_gateway_c14_HardwareDeploymentTest 000000018000b8b0 f   c14_HardwareDeploymentTest.obj
 0001:0000a8d0       sf_opaque_get_sim_state_c14_HardwareDeploymentTest 000000018000b8d0 f   c14_HardwareDeploymentTest.obj
 0001:0000a900       sf_opaque_set_sim_state_c14_HardwareDeploymentTest 000000018000b900 f   c14_HardwareDeploymentTest.obj
 0001:0000a930       sf_opaque_cleanup_runtime_resources_c14_HardwareDeploymentTest 000000018000b930 f   c14_HardwareDeploymentTest.obj
 0001:0000a9d0       sf_opaque_mdl_start_c14_HardwareDeploymentTest 000000018000b9d0 f   c14_HardwareDeploymentTest.obj
 0001:0000aa10       sf_opaque_mdl_terminate_c14_HardwareDeploymentTest 000000018000ba10 f   c14_HardwareDeploymentTest.obj
 0001:0000aa30       mdlProcessParameters_c14_HardwareDeploymentTest 000000018000ba30 f   c14_HardwareDeploymentTest.obj
 0001:0000ac30       mdlSetWorkWidths_c14_HardwareDeploymentTest 000000018000bc30 f   c14_HardwareDeploymentTest.obj
 0001:0000acc0       mdlRTW_c14_HardwareDeploymentTest 000000018000bcc0 f   c14_HardwareDeploymentTest.obj
 0001:0000ad00       mdlSetupRuntimeResources_c14_HardwareDeploymentTest 000000018000bd00 f   c14_HardwareDeploymentTest.obj
 0001:0000d744       $LN197                     000000018000e744     HardwareDeploymentTest_sfun_registry.obj
 0001:0000e5a4       $LN22                      000000018000f5a4     HardwareDeploymentTest_sfun_registry.obj
 0001:0000eca4       $LN26                      000000018000fca4     HardwareDeploymentTest_sfun_registry.obj
 0001:0000f384       $LN24                      0000000180010384     HardwareDeploymentTest_sfun_registry.obj
 0001:000100bc       $LN30                      00000001800110bc     HardwareDeploymentTest_sfun_registry.obj
 0001:000136d0       ProcessMexSfunctionCmdLineCall 00000001800146d0 f   HardwareDeploymentTest_sfun_registry.obj
 0001:00013980       mdlSetWorkWidths           0000000180014980 f   HardwareDeploymentTest_sfun_registry.obj
 0001:000139d0       mdlProcessParameters       00000001800149d0 f   HardwareDeploymentTest_sfun_registry.obj
 0001:00013a00       mdl_setup_runtime_resources_processing 0000000180014a00 f   HardwareDeploymentTest_sfun_registry.obj
 0001:00013a60       mdlSetupRuntimeResources   0000000180014a60 f   HardwareDeploymentTest_sfun_registry.obj
 0001:00013a90       mdl_cleanup_runtime_resources_processing 0000000180014a90 f   HardwareDeploymentTest_sfun_registry.obj
 0001:00013b50       mdlCleanupRuntimeResources 0000000180014b50 f   HardwareDeploymentTest_sfun_registry.obj
 0001:00013b80       mdl_start_processing       0000000180014b80 f   HardwareDeploymentTest_sfun_registry.obj
 0001:00013bc0       mdlStart                   0000000180014bc0 f   HardwareDeploymentTest_sfun_registry.obj
 0001:00013bf0       mdl_terminate_processing   0000000180014bf0 f   HardwareDeploymentTest_sfun_registry.obj
 0001:00013c30       mdlTerminate               0000000180014c30 f   HardwareDeploymentTest_sfun_registry.obj
 0001:00013c60       mdlInitializeSizes         0000000180014c60 f   HardwareDeploymentTest_sfun_registry.obj
 0001:00013c90       mdlInitializeSampleTimes   0000000180014c90 f   HardwareDeploymentTest_sfun_registry.obj
 0001:00013cc0       mdl_outputs_continuous_legacy 0000000180014cc0 f   HardwareDeploymentTest_sfun_registry.obj
 0001:00013dc0       mdl_outputs_processing     0000000180014dc0 f   HardwareDeploymentTest_sfun_registry.obj
 0001:00013f20       mdl_zeroCrossings_processing 0000000180014f20 f   HardwareDeploymentTest_sfun_registry.obj
 0001:00013f60       mdlZeroCrossings           0000000180014f60 f   HardwareDeploymentTest_sfun_registry.obj
 0001:00013f90       mdl_derivatives_processing 0000000180014f90 f   HardwareDeploymentTest_sfun_registry.obj
 0001:00013fe0       mdlDerivatives             0000000180014fe0 f   HardwareDeploymentTest_sfun_registry.obj
 0001:00014010       mdl_initialize_conditions_processing 0000000180015010 f   HardwareDeploymentTest_sfun_registry.obj
 0001:00014060       mdlInitializeConditions    0000000180015060 f   HardwareDeploymentTest_sfun_registry.obj
 0001:00014090       mdl_ext_mode_exec_processing 0000000180015090 f   HardwareDeploymentTest_sfun_registry.obj
 0001:000140d0       mdlExtModeExec             00000001800150d0 f   HardwareDeploymentTest_sfun_registry.obj
 0001:00014100       mdlRTW                     0000000180015100 f   HardwareDeploymentTest_sfun_registry.obj
 0001:00014140       mdl_enable_processing      0000000180015140 f   HardwareDeploymentTest_sfun_registry.obj
 0001:00014180       mdlEnable                  0000000180015180 f   HardwareDeploymentTest_sfun_registry.obj
 0001:000141b0       mdl_disable_processing     00000001800151b0 f   HardwareDeploymentTest_sfun_registry.obj
 0001:000141f0       mdlDisable                 00000001800151f0 f   HardwareDeploymentTest_sfun_registry.obj
 0001:00014220       mdlOutputs                 0000000180015220 f   HardwareDeploymentTest_sfun_registry.obj
 0001:00014250       mdl_update_processing      0000000180015250 f   HardwareDeploymentTest_sfun_registry.obj
 0001:000142a0       mdlUpdate                  00000001800152a0 f   HardwareDeploymentTest_sfun_registry.obj
 0001:00014490       mdlGetTimeOfNextVarHit     0000000180015490 f   HardwareDeploymentTest_sfun_registry.obj
 0001:000144e0       _RegNumInputPortsCB        00000001800154e0 f   HardwareDeploymentTest_sfun_registry.obj
 0001:00014560       _RegNumOutputPortsCB       0000000180015560 f   HardwareDeploymentTest_sfun_registry.obj
 0001:000145e0       _CreateSimStruct           00000001800155e0 f   HardwareDeploymentTest_sfun_registry.obj
 0001:00014810       _ProcessMexSfunctionCmdLineCall 0000000180015810 f   HardwareDeploymentTest_sfun_registry.obj
 0001:00015280       ReportIndexOutOfBoundsError 0000000180016280 f   HardwareDeploymentTest_sfun_registry.obj
 0001:00016228       capture_current_context    0000000180017228 f   MSVCRT:gs_report.obj
 0001:00016298       capture_previous_context   0000000180017298 f   MSVCRT:gs_report.obj
 0001:00016390       $$000000                   0000000180017390     MSVCRT:amdsecgs.obj
 0001:000163c0       $$000000                   00000001800173c0     MSVCRT:chkstk.obj
 0001:00016420       ?dllmain_crt_dispatch@@YAHQEAUHINSTANCE__@@KQEAX@Z 0000000180017420 f   MSVCRT:dll_dllmain.obj
 0001:00016470       ?dllmain_crt_process_attach@@YAHQEAUHINSTANCE__@@QEAX@Z 0000000180017470 f   MSVCRT:dll_dllmain.obj
 0001:00016588       ?dllmain_crt_process_detach@@YAH_N@Z 0000000180017588 f   MSVCRT:dll_dllmain.obj
 0001:0001660c       ?dllmain_dispatch@@YAHQEAUHINSTANCE__@@KQEAX@Z 000000018001760c f   MSVCRT:dll_dllmain.obj
 0001:00016740       ?dllmain_raw@@YAHQEAUHINSTANCE__@@KQEAX@Z 0000000180017740 f   MSVCRT:dll_dllmain.obj
 0001:000167a4       __get_entropy              00000001800177a4 f   MSVCRT:gs_support.obj
 0001:00016934       ?find_pe_section@@YAPEAU_IMAGE_SECTION_HEADER@@QEAE_K@Z 0000000180017934 f   MSVCRT:utility.obj
 0001:00016988       ?is_potentially_valid_image_base@@YA_NQEAX@Z 0000000180017988 f   MSVCRT:utility.obj
 0001:000170d0       __castguard_check_failure_os_handled_wrapper 00000001800180d0 f   MSVCRT:guard_support.obj
 0001:000170f0       __castguard_compat_check   00000001800180f0 f   MSVCRT:guard_support.obj
 0001:000171d8       __castguard_slow_path_compat_check 00000001800181d8 f   MSVCRT:guard_support.obj
 0001:000174e0       $$000000                   00000001800184e0     MSVCRT:guard_dispatch.obj
 0001:00017500       $$000000                   0000000180018500     MSVCRT:guard_xfg_dispatch.obj
 0001:00017516       ?fin$0@?0??dllmain_crt_process_attach@@YAHQEAUHINSTANCE__@@QEAX@Z@4HA 0000000180018516 f   MSVCRT:dll_dllmain.obj
 0001:0001752d       ?fin$0@?0??dllmain_crt_process_detach@@YAH_N@Z@4HA 000000018001852d f   MSVCRT:dll_dllmain.obj
 0001:00017546       ?fin$1@?0??dllmain_crt_process_detach@@YAH_N@Z@4HA 0000000180018546 f   MSVCRT:dll_dllmain.obj
 0001:0001755a       ?filt$0@?0??dllmain_dispatch@@YAHQEAUHINSTANCE__@@KQEAX@Z@4HA 000000018001855a f   MSVCRT:dll_dllmain.obj
 0001:00017590       __scrt_is_nonwritable_in_current_image$filt$0 0000000180018590 f   MSVCRT:utility.obj
 0002:00000550       ?c4_decisionTxtEndIdx@?1??mdl_setup_runtime_resources_c4_HardwareDeploymentTest@@9@9 0000000180019550     c4_HardwareDeploymentTest.obj
 0002:00000554       ?c4_decisionTxtStartIdx@?1??mdl_setup_runtime_resources_c4_HardwareDeploymentTest@@9@9 0000000180019554     c4_HardwareDeploymentTest.obj
 0002:000005b0       ?c11_decisionTxtEndIdx@?1??mdl_setup_runtime_resources_c11_HardwareDeploymentTest@@9@9 00000001800195b0     c11_HardwareDeploymentTest.obj
 0002:000005b4       ?c11_decisionTxtStartIdx@?1??mdl_setup_runtime_resources_c11_HardwareDeploymentTest@@9@9 00000001800195b4     c11_HardwareDeploymentTest.obj
 0002:000005f0       ?c14_decisionTxtEndIdx@?1??mdl_setup_runtime_resources_c14_HardwareDeploymentTest@@9@9 00000001800195f0     c14_HardwareDeploymentTest.obj
 0002:000005f4       ?c14_decisionTxtStartIdx@?1??mdl_setup_runtime_resources_c14_HardwareDeploymentTest@@9@9 00000001800195f4     c14_HardwareDeploymentTest.obj
 0002:00000648       GS_ExceptionPointers       0000000180019648     MSVCRT:gs_report.obj
 0002:00000d60       $unwind$load_HardwareDeploymentTest_optimization_info 0000000180019d60     HardwareDeploymentTest_sfun.obj
 0002:00000d68       $unwind$unload_HardwareDeploymentTest_optimization_info 0000000180019d68     HardwareDeploymentTest_sfun.obj
 0002:00000d70       $unwind$sf_HardwareDeploymentTest_method_dispatcher 0000000180019d70     HardwareDeploymentTest_sfun.obj
 0002:00000d78       $unwind$sf_HardwareDeploymentTest_process_check_sum_call 0000000180019d78     HardwareDeploymentTest_sfun.obj
 0002:00000d88       $unwind$sf_HardwareDeploymentTest_get_eml_resolved_functions_info 0000000180019d88     HardwareDeploymentTest_sfun.obj
 0002:00000d98       $unwind$sf_HardwareDeploymentTest_third_party_uses_info 0000000180019d98     HardwareDeploymentTest_sfun.obj
 0002:00000da8       $unwind$sf_HardwareDeploymentTest_jit_fallback_info 0000000180019da8     HardwareDeploymentTest_sfun.obj
 0002:00000db8       $unwind$sf_HardwareDeploymentTest_get_post_codegen_info 0000000180019db8     HardwareDeploymentTest_sfun.obj
 0002:00000dc8       $unwind$sf_HardwareDeploymentTest_updateBuildInfo_args_info 0000000180019dc8     HardwareDeploymentTest_sfun.obj
 0002:00000dd8       $unwind$sf_c4_HardwareDeploymentTest_get_eml_resolved_functions_info 0000000180019dd8     c4_HardwareDeploymentTest.obj
 0002:00000de0       $unwind$sf_c4_HardwareDeploymentTest_get_check_sum 0000000180019de0     c4_HardwareDeploymentTest.obj
 0002:00000de8       $unwind$c4_HardwareDeploymentTest_method_dispatcher 0000000180019de8     c4_HardwareDeploymentTest.obj
 0002:00000df0       $unwind$initialize_c4_HardwareDeploymentTest 0000000180019df0     c4_HardwareDeploymentTest.obj
 0002:00000df8       $unwind$mdl_start_c4_HardwareDeploymentTest 0000000180019df8     c4_HardwareDeploymentTest.obj
 0002:00000e00       $unwind$mdl_setup_runtime_resources_c4_HardwareDeploymentTest 0000000180019e00     c4_HardwareDeploymentTest.obj
 0002:00000e08       $unwind$mdl_cleanup_runtime_resources_c4_HardwareDeploymentTest 0000000180019e08     c4_HardwareDeploymentTest.obj
 0002:00000e10       $unwind$enable_c4_HardwareDeploymentTest 0000000180019e10     c4_HardwareDeploymentTest.obj
 0002:00000e18       $unwind$disable_c4_HardwareDeploymentTest 0000000180019e18     c4_HardwareDeploymentTest.obj
 0002:00000e20       $unwind$sf_gateway_c4_HardwareDeploymentTest 0000000180019e20     c4_HardwareDeploymentTest.obj
 0002:00000e30       $unwind$get_sim_state_c4_HardwareDeploymentTest 0000000180019e30     c4_HardwareDeploymentTest.obj
 0002:00000e38       $unwind$set_sim_state_c4_HardwareDeploymentTest 0000000180019e38     c4_HardwareDeploymentTest.obj
 0002:00000e40       $unwind$c4_emlrt_marshallIn 0000000180019e40     c4_HardwareDeploymentTest.obj
 0002:00000e48       $unwind$c4_b_emlrt_marshallIn 0000000180019e48     c4_HardwareDeploymentTest.obj
 0002:00000e58       $unwind$init_simulink_io_address 0000000180019e58     c4_HardwareDeploymentTest.obj
 0002:00000e60       $unwind$sf_c4_HardwareDeploymentTest_third_party_uses_info 0000000180019e60     c4_HardwareDeploymentTest.obj
 0002:00000e68       $unwind$sf_c4_HardwareDeploymentTest_jit_fallback_info 0000000180019e68     c4_HardwareDeploymentTest.obj
 0002:00000e78       $unwind$sf_c4_HardwareDeploymentTest_updateBuildInfo_args_info 0000000180019e78     c4_HardwareDeploymentTest.obj
 0002:00000e80       $unwind$sf_get_sim_state_info_c4_HardwareDeploymentTest 0000000180019e80     c4_HardwareDeploymentTest.obj
 0002:00000e88       $unwind$sf_opaque_initialize_c4_HardwareDeploymentTest 0000000180019e88     c4_HardwareDeploymentTest.obj
 0002:00000e90       $unwind$sf_opaque_enable_c4_HardwareDeploymentTest 0000000180019e90     c4_HardwareDeploymentTest.obj
 0002:00000e98       $unwind$sf_opaque_disable_c4_HardwareDeploymentTest 0000000180019e98     c4_HardwareDeploymentTest.obj
 0002:00000ea0       $unwind$sf_opaque_gateway_c4_HardwareDeploymentTest 0000000180019ea0     c4_HardwareDeploymentTest.obj
 0002:00000ea8       $unwind$sf_opaque_get_sim_state_c4_HardwareDeploymentTest 0000000180019ea8     c4_HardwareDeploymentTest.obj
 0002:00000eb0       $unwind$sf_opaque_set_sim_state_c4_HardwareDeploymentTest 0000000180019eb0     c4_HardwareDeploymentTest.obj
 0002:00000eb8       $unwind$sf_opaque_cleanup_runtime_resources_c4_HardwareDeploymentTest 0000000180019eb8     c4_HardwareDeploymentTest.obj
 0002:00000ec0       $unwind$sf_opaque_mdl_start_c4_HardwareDeploymentTest 0000000180019ec0     c4_HardwareDeploymentTest.obj
 0002:00000ec8       $unwind$sf_opaque_mdl_terminate_c4_HardwareDeploymentTest 0000000180019ec8     c4_HardwareDeploymentTest.obj
 0002:00000ed0       $unwind$mdlProcessParameters_c4_HardwareDeploymentTest 0000000180019ed0     c4_HardwareDeploymentTest.obj
 0002:00000ed8       $unwind$sf_c4_HardwareDeploymentTest_get_post_codegen_info 0000000180019ed8     c4_HardwareDeploymentTest.obj
 0002:00000ee8       $unwind$mdlSetWorkWidths_c4_HardwareDeploymentTest 0000000180019ee8     c4_HardwareDeploymentTest.obj
 0002:00000ef0       $unwind$mdlRTW_c4_HardwareDeploymentTest 0000000180019ef0     c4_HardwareDeploymentTest.obj
 0002:00000ef8       $unwind$mdlSetupRuntimeResources_c4_HardwareDeploymentTest 0000000180019ef8     c4_HardwareDeploymentTest.obj
 0002:00000f00       $unwind$sf_c11_HardwareDeploymentTest_get_eml_resolved_functions_info 0000000180019f00     c11_HardwareDeploymentTest.obj
 0002:00000f08       $unwind$sf_c11_HardwareDeploymentTest_get_check_sum 0000000180019f08     c11_HardwareDeploymentTest.obj
 0002:00000f10       $unwind$c11_HardwareDeploymentTest_method_dispatcher 0000000180019f10     c11_HardwareDeploymentTest.obj
 0002:00000f18       $unwind$initialize_c11_HardwareDeploymentTest 0000000180019f18     c11_HardwareDeploymentTest.obj
 0002:00000f20       $unwind$mdl_start_c11_HardwareDeploymentTest 0000000180019f20     c11_HardwareDeploymentTest.obj
 0002:00000f28       $unwind$mdl_setup_runtime_resources_c11_HardwareDeploymentTest 0000000180019f28     c11_HardwareDeploymentTest.obj
 0002:00000f30       $unwind$mdl_cleanup_runtime_resources_c11_HardwareDeploymentTest 0000000180019f30     c11_HardwareDeploymentTest.obj
 0002:00000f38       $unwind$enable_c11_HardwareDeploymentTest 0000000180019f38     c11_HardwareDeploymentTest.obj
 0002:00000f40       $unwind$disable_c11_HardwareDeploymentTest 0000000180019f40     c11_HardwareDeploymentTest.obj
 0002:00000f48       $unwind$sf_gateway_c11_HardwareDeploymentTest 0000000180019f48     c11_HardwareDeploymentTest.obj
 0002:00000f58       $unwind$get_sim_state_c11_HardwareDeploymentTest 0000000180019f58     c11_HardwareDeploymentTest.obj
 0002:00000f60       $unwind$set_sim_state_c11_HardwareDeploymentTest 0000000180019f60     c11_HardwareDeploymentTest.obj
 0002:00000f70       $unwind$c11_emlrt_marshallIn 0000000180019f70     c11_HardwareDeploymentTest.obj
 0002:00000f78       $unwind$c11_b_emlrt_marshallIn 0000000180019f78     c11_HardwareDeploymentTest.obj
 0002:00000f88       $unwind$c11__s32_add__     0000000180019f88     c11_HardwareDeploymentTest.obj
 0002:00000f90       $unwind$c11__s32_minus__   0000000180019f90     c11_HardwareDeploymentTest.obj
 0002:00000f98       $unwind$init_simulink_io_address 0000000180019f98     c11_HardwareDeploymentTest.obj
 0002:00000fa0       $unwind$sf_c11_HardwareDeploymentTest_third_party_uses_info 0000000180019fa0     c11_HardwareDeploymentTest.obj
 0002:00000fa8       $unwind$sf_c11_HardwareDeploymentTest_jit_fallback_info 0000000180019fa8     c11_HardwareDeploymentTest.obj
 0002:00000fb8       $unwind$sf_c11_HardwareDeploymentTest_updateBuildInfo_args_info 0000000180019fb8     c11_HardwareDeploymentTest.obj
 0002:00000fc0       $unwind$sf_get_sim_state_info_c11_HardwareDeploymentTest 0000000180019fc0     c11_HardwareDeploymentTest.obj
 0002:00000fc8       $unwind$sf_opaque_initialize_c11_HardwareDeploymentTest 0000000180019fc8     c11_HardwareDeploymentTest.obj
 0002:00000fd0       $unwind$sf_opaque_enable_c11_HardwareDeploymentTest 0000000180019fd0     c11_HardwareDeploymentTest.obj
 0002:00000fd8       $unwind$sf_opaque_disable_c11_HardwareDeploymentTest 0000000180019fd8     c11_HardwareDeploymentTest.obj
 0002:00000fe0       $unwind$sf_opaque_gateway_c11_HardwareDeploymentTest 0000000180019fe0     c11_HardwareDeploymentTest.obj
 0002:00000fe8       $unwind$sf_opaque_get_sim_state_c11_HardwareDeploymentTest 0000000180019fe8     c11_HardwareDeploymentTest.obj
 0002:00000ff0       $unwind$sf_opaque_set_sim_state_c11_HardwareDeploymentTest 0000000180019ff0     c11_HardwareDeploymentTest.obj
 0002:00000ff8       $unwind$sf_opaque_cleanup_runtime_resources_c11_HardwareDeploymentTest 0000000180019ff8     c11_HardwareDeploymentTest.obj
 0002:00001000       $unwind$sf_opaque_mdl_start_c11_HardwareDeploymentTest 000000018001a000     c11_HardwareDeploymentTest.obj
 0002:00001008       $unwind$sf_opaque_mdl_terminate_c11_HardwareDeploymentTest 000000018001a008     c11_HardwareDeploymentTest.obj
 0002:00001010       $unwind$mdlProcessParameters_c11_HardwareDeploymentTest 000000018001a010     c11_HardwareDeploymentTest.obj
 0002:00001018       $unwind$sf_c11_HardwareDeploymentTest_get_post_codegen_info 000000018001a018     c11_HardwareDeploymentTest.obj
 0002:00001028       $unwind$mdlSetWorkWidths_c11_HardwareDeploymentTest 000000018001a028     c11_HardwareDeploymentTest.obj
 0002:00001030       $unwind$mdlRTW_c11_HardwareDeploymentTest 000000018001a030     c11_HardwareDeploymentTest.obj
 0002:00001038       $unwind$mdlSetupRuntimeResources_c11_HardwareDeploymentTest 000000018001a038     c11_HardwareDeploymentTest.obj
 0002:00001040       $unwind$sf_c14_HardwareDeploymentTest_get_eml_resolved_functions_info 000000018001a040     c14_HardwareDeploymentTest.obj
 0002:00001048       $unwind$sf_c14_HardwareDeploymentTest_get_check_sum 000000018001a048     c14_HardwareDeploymentTest.obj
 0002:00001050       $unwind$c14_HardwareDeploymentTest_method_dispatcher 000000018001a050     c14_HardwareDeploymentTest.obj
 0002:00001058       $unwind$initialize_c14_HardwareDeploymentTest 000000018001a058     c14_HardwareDeploymentTest.obj
 0002:00001060       $unwind$mdl_start_c14_HardwareDeploymentTest 000000018001a060     c14_HardwareDeploymentTest.obj
 0002:00001068       $unwind$mdl_setup_runtime_resources_c14_HardwareDeploymentTest 000000018001a068     c14_HardwareDeploymentTest.obj
 0002:00001070       $unwind$mdl_cleanup_runtime_resources_c14_HardwareDeploymentTest 000000018001a070     c14_HardwareDeploymentTest.obj
 0002:00001078       $unwind$enable_c14_HardwareDeploymentTest 000000018001a078     c14_HardwareDeploymentTest.obj
 0002:00001080       $unwind$disable_c14_HardwareDeploymentTest 000000018001a080     c14_HardwareDeploymentTest.obj
 0002:00001088       $unwind$sf_gateway_c14_HardwareDeploymentTest 000000018001a088     c14_HardwareDeploymentTest.obj
 0002:00001098       $unwind$get_sim_state_c14_HardwareDeploymentTest 000000018001a098     c14_HardwareDeploymentTest.obj
 0002:000010a0       $unwind$set_sim_state_c14_HardwareDeploymentTest 000000018001a0a0     c14_HardwareDeploymentTest.obj
 0002:000010b0       $unwind$c14_emlrt_marshallIn 000000018001a0b0     c14_HardwareDeploymentTest.obj
 0002:000010b8       $unwind$c14_b_emlrt_marshallIn 000000018001a0b8     c14_HardwareDeploymentTest.obj
 0002:000010c8       $unwind$init_simulink_io_address 000000018001a0c8     c14_HardwareDeploymentTest.obj
 0002:000010d0       $unwind$sf_c14_HardwareDeploymentTest_third_party_uses_info 000000018001a0d0     c14_HardwareDeploymentTest.obj
 0002:000010d8       $unwind$sf_c14_HardwareDeploymentTest_jit_fallback_info 000000018001a0d8     c14_HardwareDeploymentTest.obj
 0002:000010e8       $unwind$sf_c14_HardwareDeploymentTest_updateBuildInfo_args_info 000000018001a0e8     c14_HardwareDeploymentTest.obj
 0002:000010f0       $unwind$sf_get_sim_state_info_c14_HardwareDeploymentTest 000000018001a0f0     c14_HardwareDeploymentTest.obj
 0002:000010f8       $unwind$sf_opaque_initialize_c14_HardwareDeploymentTest 000000018001a0f8     c14_HardwareDeploymentTest.obj
 0002:00001100       $unwind$sf_opaque_enable_c14_HardwareDeploymentTest 000000018001a100     c14_HardwareDeploymentTest.obj
 0002:00001108       $unwind$sf_opaque_disable_c14_HardwareDeploymentTest 000000018001a108     c14_HardwareDeploymentTest.obj
 0002:00001110       $unwind$sf_opaque_gateway_c14_HardwareDeploymentTest 000000018001a110     c14_HardwareDeploymentTest.obj
 0002:00001118       $unwind$sf_opaque_get_sim_state_c14_HardwareDeploymentTest 000000018001a118     c14_HardwareDeploymentTest.obj
 0002:00001120       $unwind$sf_opaque_set_sim_state_c14_HardwareDeploymentTest 000000018001a120     c14_HardwareDeploymentTest.obj
 0002:00001128       $unwind$sf_opaque_cleanup_runtime_resources_c14_HardwareDeploymentTest 000000018001a128     c14_HardwareDeploymentTest.obj
 0002:00001130       $unwind$sf_opaque_mdl_start_c14_HardwareDeploymentTest 000000018001a130     c14_HardwareDeploymentTest.obj
 0002:00001138       $unwind$sf_opaque_mdl_terminate_c14_HardwareDeploymentTest 000000018001a138     c14_HardwareDeploymentTest.obj
 0002:00001140       $unwind$mdlProcessParameters_c14_HardwareDeploymentTest 000000018001a140     c14_HardwareDeploymentTest.obj
 0002:00001148       $unwind$sf_c14_HardwareDeploymentTest_get_post_codegen_info 000000018001a148     c14_HardwareDeploymentTest.obj
 0002:00001158       $unwind$mdlSetWorkWidths_c14_HardwareDeploymentTest 000000018001a158     c14_HardwareDeploymentTest.obj
 0002:00001160       $unwind$mdlRTW_c14_HardwareDeploymentTest 000000018001a160     c14_HardwareDeploymentTest.obj
 0002:00001168       $unwind$mdlSetupRuntimeResources_c14_HardwareDeploymentTest 000000018001a168     c14_HardwareDeploymentTest.obj
 0002:00001170       $unwind$_vsnprintf_l       000000018001a170     HardwareDeploymentTest_sfun_registry.obj
 0002:00001178       $unwind$_vsprintf_l        000000018001a178     HardwareDeploymentTest_sfun_registry.obj
 0002:00001180       $unwind$sprintf            000000018001a180     HardwareDeploymentTest_sfun_registry.obj
 0002:00001188       $unwind$mexFunction        000000018001a188     HardwareDeploymentTest_sfun_registry.obj
 0002:00001198       $unwind$_ssSetInputPortDirectFeedThroughFcn 000000018001a198     HardwareDeploymentTest_sfun_registry.obj
 0002:000011a8       $unwind$_ssSetRWorkValueFcn 000000018001a1a8     HardwareDeploymentTest_sfun_registry.obj
 0002:000011b0       $unwind$_ssGetRWorkValueFcn 000000018001a1b0     HardwareDeploymentTest_sfun_registry.obj
 0002:000011b8       $unwind$_ssSetIWorkValueFcn 000000018001a1b8     HardwareDeploymentTest_sfun_registry.obj
 0002:000011c0       $unwind$_ssGetIWorkValueFcn 000000018001a1c0     HardwareDeploymentTest_sfun_registry.obj
 0002:000011c8       $unwind$_ssSetPWorkValueFcn 000000018001a1c8     HardwareDeploymentTest_sfun_registry.obj
 0002:000011d0       $unwind$_ssGetPWorkValueFcn 000000018001a1d0     HardwareDeploymentTest_sfun_registry.obj
 0002:000011d8       $unwind$_ssGetInputPortSignalFcn 000000018001a1d8     HardwareDeploymentTest_sfun_registry.obj
 0002:000011e8       $unwind$_ssGetInputPortBufferDstPortFcn 000000018001a1e8     HardwareDeploymentTest_sfun_registry.obj
 0002:000011f0       $unwind$_ssGetInputPortSignalPtrsFcn 000000018001a1f0     HardwareDeploymentTest_sfun_registry.obj
 0002:00001200       $unwind$ssGetParameterTuningCompliance 000000018001a200     HardwareDeploymentTest_sfun_registry.obj
 0002:00001208       $unwind$_ssReadInputStringFcn 000000018001a208     HardwareDeploymentTest_sfun_registry.obj
 0002:00001210       $unwind$ssGetDTypeIdFromMxArray 000000018001a210     HardwareDeploymentTest_sfun_registry.obj
 0002:00001218       $unwind$ssWriteRTWMx2dMatParam 000000018001a218     HardwareDeploymentTest_sfun_registry.obj
 0002:00001220       $unwind$ssWriteRTWMxVectParam 000000018001a220     HardwareDeploymentTest_sfun_registry.obj
 0002:00001228       $unwind$ssWriteRTWParameters 000000018001a228     HardwareDeploymentTest_sfun_registry.obj
 0002:00001230       $unwind$ssWriteRTWParamSettings 000000018001a230     HardwareDeploymentTest_sfun_registry.obj
 0002:00001238       $unwind$ssWriteRTWStr      000000018001a238     HardwareDeploymentTest_sfun_registry.obj
 0002:00001240       $unwind$ssWriteRTWWorkVect 000000018001a240     HardwareDeploymentTest_sfun_registry.obj
 0002:00001254       $unwind$ssWarning          000000018001a254     HardwareDeploymentTest_sfun_registry.obj
 0002:00001268       $unwind$ssGetRootSS        000000018001a268     HardwareDeploymentTest_sfun_registry.obj
 0002:00001270       $unwind$ssGetParentSS      000000018001a270     HardwareDeploymentTest_sfun_registry.obj
 0002:00001278       $unwind$ssWriteRTWNameValuePair 000000018001a278     HardwareDeploymentTest_sfun_registry.obj
 0002:00001280       $unwind$_ssSetInputPortMatrixDimensions 000000018001a280     HardwareDeploymentTest_sfun_registry.obj
 0002:0000128c       $unwind$_ssSetOutputPortMatrixDimensions 000000018001a28c     HardwareDeploymentTest_sfun_registry.obj
 0002:00001298       $unwind$_ssSetInputPortVectorDimension 000000018001a298     HardwareDeploymentTest_sfun_registry.obj
 0002:000012a4       $unwind$_ssSetOutputPortVectorDimension 000000018001a2a4     HardwareDeploymentTest_sfun_registry.obj
 0002:000012b0       $unwind$ssIsRunTimeParamTunable 000000018001a2b0     HardwareDeploymentTest_sfun_registry.obj
 0002:000012b8       $unwind$ssGetSFuncBlockHandle 000000018001a2b8     HardwareDeploymentTest_sfun_registry.obj
 0002:000012c0       $unwind$_ssGetCallSystemNumFcnCallDestinations 000000018001a2c0     HardwareDeploymentTest_sfun_registry.obj
 0002:000012c8       $unwind$_ssGetCurrentInputPortWidth 000000018001a2c8     HardwareDeploymentTest_sfun_registry.obj
 0002:000012d0       $unwind$_ssGetCurrentOutputPortWidth 000000018001a2d0     HardwareDeploymentTest_sfun_registry.obj
 0002:000012d8       $unwind$ssGetIsZeroCrossControlDisabled 000000018001a2d8     HardwareDeploymentTest_sfun_registry.obj
 0002:000012e0       $unwind$ssSetIsInputPortUsedForContZcSignal 000000018001a2e0     HardwareDeploymentTest_sfun_registry.obj
 0002:000012e8       $unwind$ssSetZcSignalIsZcElementDisc 000000018001a2e8     HardwareDeploymentTest_sfun_registry.obj
 0002:000012f8       $unwind$ssSetZcSignalName  000000018001a2f8     HardwareDeploymentTest_sfun_registry.obj
 0002:00001300       $unwind$ssSetZcSignalWidth 000000018001a300     HardwareDeploymentTest_sfun_registry.obj
 0002:00001308       $unwind$ssSetZcSignalZcEventType 000000018001a308     HardwareDeploymentTest_sfun_registry.obj
 0002:00001310       $unwind$ssSetZcSignalType  000000018001a310     HardwareDeploymentTest_sfun_registry.obj
 0002:00001318       $unwind$ssSetZcSignalZcTol 000000018001a318     HardwareDeploymentTest_sfun_registry.obj
 0002:00001320       $unwind$ssSetZcSignalNeedsEventNotification 000000018001a320     HardwareDeploymentTest_sfun_registry.obj
 0002:00001328       $unwind$ssCreateAndAddZcSignalInfo 000000018001a328     HardwareDeploymentTest_sfun_registry.obj
 0002:00001330       $unwind$ssCloneAndAddZcSignalInfo 000000018001a330     HardwareDeploymentTest_sfun_registry.obj
 0002:00001338       $unwind$ssGetNumZcSignals  000000018001a338     HardwareDeploymentTest_sfun_registry.obj
 0002:00001340       $unwind$ssGetZcSignalVector 000000018001a340     HardwareDeploymentTest_sfun_registry.obj
 0002:00001348       $unwind$ssGetZcSignalName  000000018001a348     HardwareDeploymentTest_sfun_registry.obj
 0002:00001350       $unwind$ssGetZcSignalWidth 000000018001a350     HardwareDeploymentTest_sfun_registry.obj
 0002:00001358       $unwind$ssGetZcSignalZcEventType 000000018001a358     HardwareDeploymentTest_sfun_registry.obj
 0002:00001360       $unwind$ssGetZcSignalZcEvents 000000018001a360     HardwareDeploymentTest_sfun_registry.obj
 0002:00001368       $unwind$ssGetZcSignalType  000000018001a368     HardwareDeploymentTest_sfun_registry.obj
 0002:00001370       $unwind$ssGetZcSignalZcTol 000000018001a370     HardwareDeploymentTest_sfun_registry.obj
 0002:00001378       $unwind$ssGetZcSignalNeedsEventNotification 000000018001a378     HardwareDeploymentTest_sfun_registry.obj
 0002:00001380       $unwind$ssGetZcSignalIsZcElementDisc 000000018001a380     HardwareDeploymentTest_sfun_registry.obj
 0002:00001390       $unwind$ssGetIsInputPortElementContinuous 000000018001a390     HardwareDeploymentTest_sfun_registry.obj
 0002:000013a0       $unwind$_ssGetAbsTol       000000018001a3a0     HardwareDeploymentTest_sfun_registry.obj
 0002:000013a8       $unwind$_ssSetInputPortReusableFcn 000000018001a3a8     HardwareDeploymentTest_sfun_registry.obj
 0002:000013b0       $unwind$_ssSetOutputPortReusableFcn 000000018001a3b0     HardwareDeploymentTest_sfun_registry.obj
 0002:000013b8       $unwind$_ssSetSymbolicDimsSupport 000000018001a3b8     HardwareDeploymentTest_sfun_registry.obj
 0002:000013c0       $unwind$_ssRegisterSymbolicDimsExpr 000000018001a3c0     HardwareDeploymentTest_sfun_registry.obj
 0002:000013c8       $unwind$_ssRegisterSymbolicDimsMATLABExpr 000000018001a3c8     HardwareDeploymentTest_sfun_registry.obj
 0002:000013d0       $unwind$_ssRegisterSymbolicDims 000000018001a3d0     HardwareDeploymentTest_sfun_registry.obj
 0002:000013d8       $unwind$_ssRegisterSymbolicDimsString 000000018001a3d8     HardwareDeploymentTest_sfun_registry.obj
 0002:000013e0       $unwind$_ssRegisterSymbolicDimsIntValue 000000018001a3e0     HardwareDeploymentTest_sfun_registry.obj
 0002:000013e8       $unwind$_ssRegisterSymbolicEqualRelation 000000018001a3e8     HardwareDeploymentTest_sfun_registry.obj
 0002:000013f0       $unwind$_ssRegisterSymbolicEqualValue 000000018001a3f0     HardwareDeploymentTest_sfun_registry.obj
 0002:000013f8       $unwind$_ssAmendLeadingSymbolicDims 000000018001a3f8     HardwareDeploymentTest_sfun_registry.obj
 0002:00001400       $unwind$_ssAmendTrailingSymbolicDims 000000018001a400     HardwareDeploymentTest_sfun_registry.obj
 0002:00001408       $unwind$_ssRegisterSymbolicDimsPlus 000000018001a408     HardwareDeploymentTest_sfun_registry.obj
 0002:00001410       $unwind$_ssRegisterSymbolicDimsMinus 000000018001a410     HardwareDeploymentTest_sfun_registry.obj
 0002:00001418       $unwind$_ssRegisterSymbolicDimsMultiply 000000018001a418     HardwareDeploymentTest_sfun_registry.obj
 0002:00001420       $unwind$_ssRegisterSymbolicDimsDivide 000000018001a420     HardwareDeploymentTest_sfun_registry.obj
 0002:00001428       $unwind$_ssGetNumSymbolicDims 000000018001a428     HardwareDeploymentTest_sfun_registry.obj
 0002:00001430       $unwind$_ssGetSymbolicDim  000000018001a430     HardwareDeploymentTest_sfun_registry.obj
 0002:00001438       $unwind$_ssSetInputPortSymbolicDimsId 000000018001a438     HardwareDeploymentTest_sfun_registry.obj
 0002:00001440       $unwind$_ssGetCompInputPortSymbolicDimsId 000000018001a440     HardwareDeploymentTest_sfun_registry.obj
 0002:00001448       $unwind$_ssSetCompInputPortSymbolicDimsId 000000018001a448     HardwareDeploymentTest_sfun_registry.obj
 0002:00001450       $unwind$_ssSetOutputPortSymbolicDimsId 000000018001a450     HardwareDeploymentTest_sfun_registry.obj
 0002:00001458       $unwind$_ssGetCompOutputPortSymbolicDimsId 000000018001a458     HardwareDeploymentTest_sfun_registry.obj
 0002:00001460       $unwind$_ssSetCompOutputPortSymbolicDimsId 000000018001a460     HardwareDeploymentTest_sfun_registry.obj
 0002:00001468       $unwind$_ssGetDWorkSymbolicDimsId 000000018001a468     HardwareDeploymentTest_sfun_registry.obj
 0002:00001470       $unwind$_ssSetDWorkSymbolicDimsId 000000018001a470     HardwareDeploymentTest_sfun_registry.obj
 0002:00001478       $unwind$_ssGetCompDWorkSymbolicDimsId 000000018001a478     HardwareDeploymentTest_sfun_registry.obj
 0002:00001480       $unwind$_ssSetCompDWorkSymbolicDimsId 000000018001a480     HardwareDeploymentTest_sfun_registry.obj
 0002:00001488       $unwind$_ssCreateSLCGStringBuffer 000000018001a488     HardwareDeploymentTest_sfun_registry.obj
 0002:00001490       $unwind$_ssAddToSLCGStringBuffer 000000018001a490     HardwareDeploymentTest_sfun_registry.obj
 0002:00001498       $unwind$_ssGetPointerContainedData 000000018001a498     HardwareDeploymentTest_sfun_registry.obj
 0002:000014a0       $unwind$_ssGetPointerContainedDataWidth 000000018001a4a0     HardwareDeploymentTest_sfun_registry.obj
 0002:000014a8       $unwind$_ssRegisterDynamicArrayDataTypeFcn 000000018001a4a8     HardwareDeploymentTest_sfun_registry.obj
 0002:000014b0       $unwind$_ssGetDynamicArrayContainedDataCurrentWidthFcn 000000018001a4b0     HardwareDeploymentTest_sfun_registry.obj
 0002:000014b8       $unwind$_ssGetDynamicArrayContainedDataFcn 000000018001a4b8     HardwareDeploymentTest_sfun_registry.obj
 0002:000014c0       $unwind$_ssGetInputPortDynamicArrayDataFcn 000000018001a4c0     HardwareDeploymentTest_sfun_registry.obj
 0002:000014c8       $unwind$_ssGetOutputPortDynamicArrayDataFcn 000000018001a4c8     HardwareDeploymentTest_sfun_registry.obj
 0002:000014d0       $unwind$_ssGetInputPortDynamicArrayContainedDataFcn 000000018001a4d0     HardwareDeploymentTest_sfun_registry.obj
 0002:000014d8       $unwind$_ssGetOutputPortDynamicArrayContainedDataFcn 000000018001a4d8     HardwareDeploymentTest_sfun_registry.obj
 0002:000014e0       $unwind$_ssGetDynamicArrayDWorkContainedDataFcn 000000018001a4e0     HardwareDeploymentTest_sfun_registry.obj
 0002:000014e8       $unwind$sf_process_check_sum_call 000000018001a4e8     HardwareDeploymentTest_sfun_registry.obj
 0002:000014f0       $unwind$sf_process_get_third_party_uses_info_call 000000018001a4f0     HardwareDeploymentTest_sfun_registry.obj
 0002:00001500       $unwind$sf_process_get_jit_fallback_info_call 000000018001a500     HardwareDeploymentTest_sfun_registry.obj
 0002:00001510       $unwind$sf_process_get_post_codegen_info_call 000000018001a510     HardwareDeploymentTest_sfun_registry.obj
 0002:00001520       $unwind$sf_process_get_updateBuildInfo_args_info_call 000000018001a520     HardwareDeploymentTest_sfun_registry.obj
 0002:00001530       $unwind$sf_process_get_eml_resolved_functions_info_call 000000018001a530     HardwareDeploymentTest_sfun_registry.obj
 0002:00001540       $unwind$sf_mex_unlock_call 000000018001a540     HardwareDeploymentTest_sfun_registry.obj
 0002:00001550       $unwind$ProcessMexSfunctionCmdLineCall 000000018001a550     HardwareDeploymentTest_sfun_registry.obj
 0002:00001558       $unwind$sf_machine_global_initializer_called 000000018001a558     HardwareDeploymentTest_sfun_registry.obj
 0002:00001560       $unwind$sf_machine_global_method_dispatcher 000000018001a560     HardwareDeploymentTest_sfun_registry.obj
 0002:00001568       $unwind$sf_machine_global_terminator 000000018001a568     HardwareDeploymentTest_sfun_registry.obj
 0002:00001570       $unwind$sf_machine_global_initializer 000000018001a570     HardwareDeploymentTest_sfun_registry.obj
 0002:00001578       $unwind$mdlGetSimState     000000018001a578     HardwareDeploymentTest_sfun_registry.obj
 0002:00001580       $unwind$mdlSetSimState     000000018001a580     HardwareDeploymentTest_sfun_registry.obj
 0002:00001588       $unwind$mdlSetWorkWidths   000000018001a588     HardwareDeploymentTest_sfun_registry.obj
 0002:00001590       $unwind$mdlProcessParameters 000000018001a590     HardwareDeploymentTest_sfun_registry.obj
 0002:00001598       $unwind$mdl_setup_runtime_resources_processing 000000018001a598     HardwareDeploymentTest_sfun_registry.obj
 0002:000015a0       $unwind$mdlSetupRuntimeResources 000000018001a5a0     HardwareDeploymentTest_sfun_registry.obj
 0002:000015a8       $unwind$mdl_cleanup_runtime_resources_processing 000000018001a5a8     HardwareDeploymentTest_sfun_registry.obj
 0002:000015b0       $unwind$mdlCleanupRuntimeResources 000000018001a5b0     HardwareDeploymentTest_sfun_registry.obj
 0002:000015b8       $unwind$mdl_start_processing 000000018001a5b8     HardwareDeploymentTest_sfun_registry.obj
 0002:000015c0       $unwind$mdlStart           000000018001a5c0     HardwareDeploymentTest_sfun_registry.obj
 0002:000015c8       $unwind$mdl_terminate_processing 000000018001a5c8     HardwareDeploymentTest_sfun_registry.obj
 0002:000015d0       $unwind$mdlTerminate       000000018001a5d0     HardwareDeploymentTest_sfun_registry.obj
 0002:000015d8       $unwind$mdlInitializeSizes 000000018001a5d8     HardwareDeploymentTest_sfun_registry.obj
 0002:000015e0       $unwind$mdlInitializeSampleTimes 000000018001a5e0     HardwareDeploymentTest_sfun_registry.obj
 0002:000015e8       $unwind$mdl_outputs_continuous_legacy 000000018001a5e8     HardwareDeploymentTest_sfun_registry.obj
 0002:000015f0       $unwind$mdl_outputs_processing 000000018001a5f0     HardwareDeploymentTest_sfun_registry.obj
 0002:000015f8       $unwind$mdl_zeroCrossings_processing 000000018001a5f8     HardwareDeploymentTest_sfun_registry.obj
 0002:00001600       $unwind$mdlZeroCrossings   000000018001a600     HardwareDeploymentTest_sfun_registry.obj
 0002:00001608       $unwind$mdl_derivatives_processing 000000018001a608     HardwareDeploymentTest_sfun_registry.obj
 0002:00001610       $unwind$mdlDerivatives     000000018001a610     HardwareDeploymentTest_sfun_registry.obj
 0002:00001618       $unwind$mdl_initialize_conditions_processing 000000018001a618     HardwareDeploymentTest_sfun_registry.obj
 0002:00001620       $unwind$mdlInitializeConditions 000000018001a620     HardwareDeploymentTest_sfun_registry.obj
 0002:00001628       $unwind$mdl_ext_mode_exec_processing 000000018001a628     HardwareDeploymentTest_sfun_registry.obj
 0002:00001630       $unwind$mdlExtModeExec     000000018001a630     HardwareDeploymentTest_sfun_registry.obj
 0002:00001638       $unwind$mdlRTW             000000018001a638     HardwareDeploymentTest_sfun_registry.obj
 0002:00001640       $unwind$mdl_enable_processing 000000018001a640     HardwareDeploymentTest_sfun_registry.obj
 0002:00001648       $unwind$mdlEnable          000000018001a648     HardwareDeploymentTest_sfun_registry.obj
 0002:00001650       $unwind$mdl_disable_processing 000000018001a650     HardwareDeploymentTest_sfun_registry.obj
 0002:00001658       $unwind$mdlDisable         000000018001a658     HardwareDeploymentTest_sfun_registry.obj
 0002:00001660       $unwind$mdlOutputs         000000018001a660     HardwareDeploymentTest_sfun_registry.obj
 0002:00001668       $unwind$mdl_update_processing 000000018001a668     HardwareDeploymentTest_sfun_registry.obj
 0002:00001670       $unwind$mdlUpdate          000000018001a670     HardwareDeploymentTest_sfun_registry.obj
 0002:00001678       $unwind$ProcessMexSfunctionEveryCall 000000018001a678     HardwareDeploymentTest_sfun_registry.obj
 0002:00001680       $unwind$_RegNumInputPortsCB 000000018001a680     HardwareDeploymentTest_sfun_registry.obj
 0002:00001688       $unwind$_RegNumOutputPortsCB 000000018001a688     HardwareDeploymentTest_sfun_registry.obj
 0002:00001690       $unwind$_CreateSimStruct   000000018001a690     HardwareDeploymentTest_sfun_registry.obj
 0002:00001698       $unwind$_ProcessMexSfunctionCmdLineCall 000000018001a698     HardwareDeploymentTest_sfun_registry.obj
 0002:000016a8       $unwind$ReportIndexOutOfBoundsError 000000018001a6a8     HardwareDeploymentTest_sfun_registry.obj
 0002:000016b8       $unwind$getBitfieldFromFloat 000000018001a6b8     half_type.obj
 0002:000016c0       $unwind$getFloatFromBitfield 000000018001a6c0     half_type.obj
 0002:000016c8       $unwind$getHalfFromBitfield 000000018001a6c8     half_type.obj
 0002:000016d0       $unwind$halfToFloat        000000018001a6d0     half_type.obj
 0002:000016d8       $unwind$halfToDouble       000000018001a6d8     half_type.obj
 0002:000016e0       $unwind$floatToHalf        000000018001a6e0     half_type.obj
 0002:000016e8       $unwind$doubleToHalf       000000018001a6e8     half_type.obj
 0002:000016f0       $unwind$__report_securityfailure 000000018001a6f0     MSVCRT:gs_report.obj
 0002:000016f8       $unwind$__report_securityfailureEx 000000018001a6f8     MSVCRT:gs_report.obj
 0002:00001700       $unwind$__report_rangecheckfailure 000000018001a700     MSVCRT:gs_report.obj
 0002:00001708       $unwind$__report_gsfailure 000000018001a708     MSVCRT:gs_report.obj
 0002:00001710       $unwind$capture_current_context 000000018001a710     MSVCRT:gs_report.obj
 0002:0000171c       $unwind$capture_previous_context 000000018001a71c     MSVCRT:gs_report.obj
 0002:00001728       $unwind$__raise_securityfailure 000000018001a728     MSVCRT:gs_report.obj
 0002:00001730       $unwind$__GSHandlerCheckCommon 000000018001a730     MSVCRT:gshandler.obj
 0002:00001738       $unwind$__GSHandlerCheck   000000018001a738     MSVCRT:gshandler.obj
 0002:00001740       $xdatasym                  000000018001a740     MSVCRT:amdsecgs.obj
 0002:00001748       $xdatasym                  000000018001a748     MSVCRT:chkstk.obj
 0002:00001750       $unwind$?dllmain_crt_process_attach@@YAHQEAUHINSTANCE__@@QEAX@Z 000000018001a750     MSVCRT:dll_dllmain.obj
 0002:0000178c       $unwind$?fin$0@?0??dllmain_crt_process_attach@@YAHQEAUHINSTANCE__@@QEAX@Z@4HA 000000018001a78c     MSVCRT:dll_dllmain.obj
 0002:00001794       $unwind$?dllmain_crt_process_detach@@YAH_N@Z 000000018001a794     MSVCRT:dll_dllmain.obj
 0002:000017e8       $unwind$?fin$0@?0??dllmain_crt_process_detach@@YAH_N@Z@4HA 000000018001a7e8     MSVCRT:dll_dllmain.obj
 0002:000017f0       $unwind$?fin$1@?0??dllmain_crt_process_detach@@YAH_N@Z@4HA 000000018001a7f0     MSVCRT:dll_dllmain.obj
 0002:000017f8       $unwind$?dllmain_crt_dispatch@@YAHQEAUHINSTANCE__@@KQEAX@Z 000000018001a7f8     MSVCRT:dll_dllmain.obj
 0002:00001800       $unwind$?dllmain_dispatch@@YAHQEAUHINSTANCE__@@KQEAX@Z 000000018001a800     MSVCRT:dll_dllmain.obj
 0002:00001828       $unwind$?filt$0@?0??dllmain_dispatch@@YAHQEAUHINSTANCE__@@KQEAX@Z@4HA 000000018001a828     MSVCRT:dll_dllmain.obj
 0002:00001830       $unwind$_DllMainCRTStartup 000000018001a830     MSVCRT:dll_dllmain.obj
 0002:00001840       $unwind$__security_init_cookie 000000018001a840     MSVCRT:gs_support.obj
 0002:0000184c       $unwind$__get_entropy      000000018001a84c     MSVCRT:gs_support.obj
 0002:00001854       $unwind$DllMain            000000018001a854     MSVCRT:dll_dllmain_stub.obj
 0002:0000185c       $unwind$__scrt_initialize_default_local_stdio_options 000000018001a85c     MSVCRT:default_local_stdio_options.obj
 0002:00001864       $unwind$atexit             000000018001a864     MSVCRT:utility.obj
 0002:0000186c       $unwind$_onexit            000000018001a86c     MSVCRT:utility.obj
 0002:00001874       $unwind$__scrt_is_nonwritable_in_current_image 000000018001a874     MSVCRT:utility.obj
 0002:00001894       $unwind$__scrt_is_nonwritable_in_current_image$filt$0 000000018001a894     MSVCRT:utility.obj
 0002:0000189c       $unwind$__scrt_acquire_startup_lock 000000018001a89c     MSVCRT:utility.obj
 0002:000018a4       $unwind$__scrt_release_startup_lock 000000018001a8a4     MSVCRT:utility.obj
 0002:000018ac       $unwind$__scrt_initialize_crt 000000018001a8ac     MSVCRT:utility.obj
 0002:000018b4       $unwind$__scrt_uninitialize_crt 000000018001a8b4     MSVCRT:utility.obj
 0002:000018bc       $unwind$__scrt_initialize_onexit_tables 000000018001a8bc     MSVCRT:utility.obj
 0002:000018c4       $unwind$__scrt_dllmain_exception_filter 000000018001a8c4     MSVCRT:utility.obj
 0002:000018d8       $unwind$__scrt_dllmain_before_initialize_c 000000018001a8d8     MSVCRT:utility.obj
 0002:000018e0       $unwind$__scrt_dllmain_after_initialize_c 000000018001a8e0     MSVCRT:utility.obj
 0002:000018e8       $unwind$__scrt_dllmain_uninitialize_c 000000018001a8e8     MSVCRT:utility.obj
 0002:000018f0       $unwind$__scrt_dllmain_uninitialize_critical 000000018001a8f0     MSVCRT:utility.obj
 0002:000018f8       $unwind$__scrt_dllmain_crt_thread_attach 000000018001a8f8     MSVCRT:utility.obj
 0002:00001900       $unwind$__scrt_dllmain_crt_thread_detach 000000018001a900     MSVCRT:utility.obj
 0002:00001908       $unwind$?configure_argv@__scrt_narrow_argv_policy@@SAHXZ 000000018001a908     MSVCRT:utility.obj
 0002:00001910       $unwind$__scrt_get_show_window_mode 000000018001a910     MSVCRT:utility_desktop.obj
 0002:00001918       $unwind$__scrt_is_managed_app 000000018001a918     MSVCRT:utility_desktop.obj
 0002:00001920       $unwind$__scrt_fastfail    000000018001a920     MSVCRT:utility_desktop.obj
 0002:00001930       $unwind$__scrt_unhandled_exception_filter 000000018001a930     MSVCRT:utility_desktop.obj
 0002:0000193c       $unwind$_RTC_Initialize    000000018001a93c     MSVCRT:initsect.obj
 0002:00001948       $unwind$_RTC_Terminate     000000018001a948     MSVCRT:initsect.obj
 0002:00001954       $unwind$__castguard_check_failure_os_handled_wrapper 000000018001a954     MSVCRT:guard_support.obj
 0002:0000195c       $unwind$__castguard_check_failure_os_handled 000000018001a95c     MSVCRT:guard_support.obj
 0002:00001964       $unwind$__castguard_slow_path_check_os_handled 000000018001a964     MSVCRT:guard_support.obj
 0002:0000196c       $unwind$__isa_available_init 000000018001a96c     MSVCRT:cpu_disp.obj
 0002:00001980       $xdatasym                  000000018001a980     MSVCRT:guard_dispatch.obj
 0002:00001988       $xdatasym                  000000018001a988     MSVCRT:guard_xfg_dispatch.obj
 0002:00001990       .edata                     000000018001a990     HardwareDeploymentTest_sfun.exp
 0002:000019b8       rgpv                       000000018001a9b8     HardwareDeploymentTest_sfun.exp
 0002:000019c0       rgszName                   000000018001a9c0     HardwareDeploymentTest_sfun.exp
 0002:000019c8       rgwOrd                     000000018001a9c8     HardwareDeploymentTest_sfun.exp
 0002:000019cc       szName                     000000018001a9cc     HardwareDeploymentTest_sfun.exp
 0002:000019ef       $N00001                    000000018001a9ef     HardwareDeploymentTest_sfun.exp
 0002:000019fb       $N00002                    000000018001a9fb     HardwareDeploymentTest_sfun.exp
 0002:00001ffa       .idata$6                   000000018001affa     libmwgrayto8:libmwgrayto8.dll
 0002:00002022       .idata$6                   000000018001b022     libmwrgb2gray_tbb:libmwrgb2gray_tbb.dll
 0002:00002046       .idata$6                   000000018001b046     libmwgetnumcores:libmwgetnumcores.dll
 0002:000023de       .idata$6                   000000018001b3de     sf_runtime:sf_runtime.dll
 0002:00002578       .idata$6                   000000018001b578     libmx:libmx.dll
 0002:0000260c       .idata$6                   000000018001b60c     libmex:libmex.dll
 0002:0000262e       .idata$6                   000000018001b62e     libut:libut.dll
 0002:00002690       .idata$6                   000000018001b690     libmwmathutil:libmwmathutil.dll
 0002:000026f6       .idata$6                   000000018001b6f6     libemlrt:libemlrt.dll
 0002:0000280e       .idata$6                   000000018001b80e     libcovrt:libcovrt.dll
 0002:000029a8       .idata$6                   000000018001b9a8     kernel32:KERNEL32.dll
 0002:00002a36       .idata$6                   000000018001ba36     vcruntime:VCRUNTIME140.dll
 0002:00002b84       .idata$6                   000000018001bb84     ucrt:api-ms-win-crt-string-l1-1-0.dll
 0002:00002ba6       .idata$6                   000000018001bba6     ucrt:api-ms-win-crt-stdio-l1-1-0.dll
 0002:00002bc6       .idata$6                   000000018001bbc6     ucrt:api-ms-win-crt-heap-l1-1-0.dll
 0002:00002be6       .idata$6                   000000018001bbe6     ucrt:api-ms-win-crt-runtime-l1-1-0.dll
 0003:00000000       $SG26660                   000000018001c000     HardwareDeploymentTest_sfun.obj
 0003:00000018       $SG26665                   000000018001c018     HardwareDeploymentTest_sfun.obj
 0003:00000020       $SG26668                   000000018001c020     HardwareDeploymentTest_sfun.obj
 0003:00000028       $SG26675                   000000018001c028     HardwareDeploymentTest_sfun.obj
 0003:00000030       $SG26713                   000000018001c030     HardwareDeploymentTest_sfun.obj
 0003:00000050       $SG26716                   000000018001c050     HardwareDeploymentTest_sfun.obj
 0003:00000068       $SG26719                   000000018001c068     HardwareDeploymentTest_sfun.obj
 0003:00000080       $SG26722                   000000018001c080     HardwareDeploymentTest_sfun.obj
 0003:00000098       $SG26755                   000000018001c098     HardwareDeploymentTest_sfun.obj
 0003:000000b8       $SG26758                   000000018001c0b8     HardwareDeploymentTest_sfun.obj
 0003:000000d0       $SG26761                   000000018001c0d0     HardwareDeploymentTest_sfun.obj
 0003:000000e8       $SG26764                   000000018001c0e8     HardwareDeploymentTest_sfun.obj
 0003:00000100       $SG26797                   000000018001c100     HardwareDeploymentTest_sfun.obj
 0003:00000118       $SG26800                   000000018001c118     HardwareDeploymentTest_sfun.obj
 0003:00000130       $SG26803                   000000018001c130     HardwareDeploymentTest_sfun.obj
 0003:00000148       $SG26806                   000000018001c148     HardwareDeploymentTest_sfun.obj
 0003:00000160       $SG26842                   000000018001c160     HardwareDeploymentTest_sfun.obj
 0003:00000178       $SG26845                   000000018001c178     HardwareDeploymentTest_sfun.obj
 0003:00000190       $SG26848                   000000018001c190     HardwareDeploymentTest_sfun.obj
 0003:000001a8       $SG26851                   000000018001c1a8     HardwareDeploymentTest_sfun.obj
 0003:000001c0       $SG26884                   000000018001c1c0     HardwareDeploymentTest_sfun.obj
 0003:000001e0       $SG26887                   000000018001c1e0     HardwareDeploymentTest_sfun.obj
 0003:000001f8       $SG26890                   000000018001c1f8     HardwareDeploymentTest_sfun.obj
 0003:00000210       $SG26893                   000000018001c210     HardwareDeploymentTest_sfun.obj
 0003:00000228       $SG26915                   000000018001c228     HardwareDeploymentTest_sfun.obj
 0003:00000240       $SG26916                   000000018001c240     HardwareDeploymentTest_sfun.obj
 0003:00000260       $SG26423                   000000018001c260     c4_HardwareDeploymentTest.obj
 0003:00000270       $SG26424                   000000018001c270     c4_HardwareDeploymentTest.obj
 0003:000002d0       $SG26426                   000000018001c2d0     c4_HardwareDeploymentTest.obj
 0003:000002e4       $SG26429                   000000018001c2e4     c4_HardwareDeploymentTest.obj
 0003:000002f0       $SG26427                   000000018001c2f0     c4_HardwareDeploymentTest.obj
 0003:00000350       $SG26430                   000000018001c350     c4_HardwareDeploymentTest.obj
 0003:00000398       $SG26432                   000000018001c398     c4_HardwareDeploymentTest.obj
 0003:000003c4       $SG26450                   000000018001c3c4     c4_HardwareDeploymentTest.obj
 0003:000003d0       $SG26433                   000000018001c3d0     c4_HardwareDeploymentTest.obj
 0003:000003f0       $SG26435                   000000018001c3f0     c4_HardwareDeploymentTest.obj
 0003:0000041c       $SG26453                   000000018001c41c     c4_HardwareDeploymentTest.obj
 0003:00000428       $SG26436                   000000018001c428     c4_HardwareDeploymentTest.obj
 0003:00000448       $SG26438                   000000018001c448     c4_HardwareDeploymentTest.obj
 0003:00000450       $SG26439                   000000018001c450     c4_HardwareDeploymentTest.obj
 0003:00000498       $SG26441                   000000018001c498     c4_HardwareDeploymentTest.obj
 0003:000004a8       $SG26444                   000000018001c4a8     c4_HardwareDeploymentTest.obj
 0003:000004b4       $SG26456                   000000018001c4b4     c4_HardwareDeploymentTest.obj
 0003:000004c0       $SG26442                   000000018001c4c0     c4_HardwareDeploymentTest.obj
 0003:00000508       $SG26459                   000000018001c508     c4_HardwareDeploymentTest.obj
 0003:00000510       $SG26445                   000000018001c510     c4_HardwareDeploymentTest.obj
 0003:00000558       $SG26447                   000000018001c558     c4_HardwareDeploymentTest.obj
 0003:00000568       $SG26462                   000000018001c568     c4_HardwareDeploymentTest.obj
 0003:00000570       $SG26448                   000000018001c570     c4_HardwareDeploymentTest.obj
 0003:000005b8       $SG26471                   000000018001c5b8     c4_HardwareDeploymentTest.obj
 0003:000005d0       $SG26451                   000000018001c5d0     c4_HardwareDeploymentTest.obj
 0003:00000618       $SG26465                   000000018001c618     c4_HardwareDeploymentTest.obj
 0003:00000624       $SG26474                   000000018001c624     c4_HardwareDeploymentTest.obj
 0003:00000630       $SG26454                   000000018001c630     c4_HardwareDeploymentTest.obj
 0003:00000678       $SG26468                   000000018001c678     c4_HardwareDeploymentTest.obj
 0003:00000684       $SG26477                   000000018001c684     c4_HardwareDeploymentTest.obj
 0003:00000690       $SG26457                   000000018001c690     c4_HardwareDeploymentTest.obj
 0003:000006d4       $SG26481                   000000018001c6d4     c4_HardwareDeploymentTest.obj
 0003:000006e0       $SG26460                   000000018001c6e0     c4_HardwareDeploymentTest.obj
 0003:00000724       $SG26484                   000000018001c724     c4_HardwareDeploymentTest.obj
 0003:00000730       $SG26463                   000000018001c730     c4_HardwareDeploymentTest.obj
 0003:0000078c       $SG26488                   000000018001c78c     c4_HardwareDeploymentTest.obj
 0003:00000794       $SG26491                   000000018001c794     c4_HardwareDeploymentTest.obj
 0003:000007a0       $SG26466                   000000018001c7a0     c4_HardwareDeploymentTest.obj
 0003:000007e8       $SG26495                   000000018001c7e8     c4_HardwareDeploymentTest.obj
 0003:000007f0       $SG26469                   000000018001c7f0     c4_HardwareDeploymentTest.obj
 0003:00000838       $SG26498                   000000018001c838     c4_HardwareDeploymentTest.obj
 0003:00000840       $SG26472                   000000018001c840     c4_HardwareDeploymentTest.obj
 0003:00000890       $SG26475                   000000018001c890     c4_HardwareDeploymentTest.obj
 0003:000008d8       $SG26502                   000000018001c8d8     c4_HardwareDeploymentTest.obj
 0003:000008e0       $SG26478                   000000018001c8e0     c4_HardwareDeploymentTest.obj
 0003:00000924       $SG26505                   000000018001c924     c4_HardwareDeploymentTest.obj
 0003:00000930       $SG26482                   000000018001c930     c4_HardwareDeploymentTest.obj
 0003:00000974       $SG26509                   000000018001c974     c4_HardwareDeploymentTest.obj
 0003:00000980       $SG26485                   000000018001c980     c4_HardwareDeploymentTest.obj
 0003:000009c4       $SG26512                   000000018001c9c4     c4_HardwareDeploymentTest.obj
 0003:000009d0       $SG26489                   000000018001c9d0     c4_HardwareDeploymentTest.obj
 0003:00000a14       $SG26516                   000000018001ca14     c4_HardwareDeploymentTest.obj
 0003:00000a20       $SG26492                   000000018001ca20     c4_HardwareDeploymentTest.obj
 0003:00000a64       $SG26519                   000000018001ca64     c4_HardwareDeploymentTest.obj
 0003:00000a70       $SG26496                   000000018001ca70     c4_HardwareDeploymentTest.obj
 0003:00000ab4       $SG26523                   000000018001cab4     c4_HardwareDeploymentTest.obj
 0003:00000ac0       $SG26499                   000000018001cac0     c4_HardwareDeploymentTest.obj
 0003:00000b04       $SG26526                   000000018001cb04     c4_HardwareDeploymentTest.obj
 0003:00000b10       $SG26503                   000000018001cb10     c4_HardwareDeploymentTest.obj
 0003:00000b54       $SG26530                   000000018001cb54     c4_HardwareDeploymentTest.obj
 0003:00000b60       $SG26506                   000000018001cb60     c4_HardwareDeploymentTest.obj
 0003:00000ba4       $SG26533                   000000018001cba4     c4_HardwareDeploymentTest.obj
 0003:00000bb0       $SG26510                   000000018001cbb0     c4_HardwareDeploymentTest.obj
 0003:00000bf4       $SG26537                   000000018001cbf4     c4_HardwareDeploymentTest.obj
 0003:00000c00       $SG26513                   000000018001cc00     c4_HardwareDeploymentTest.obj
 0003:00000c44       $SG26540                   000000018001cc44     c4_HardwareDeploymentTest.obj
 0003:00000c50       $SG26517                   000000018001cc50     c4_HardwareDeploymentTest.obj
 0003:00000c94       $SG26544                   000000018001cc94     c4_HardwareDeploymentTest.obj
 0003:00000ca0       $SG26520                   000000018001cca0     c4_HardwareDeploymentTest.obj
 0003:00000ce4       $SG26547                   000000018001cce4     c4_HardwareDeploymentTest.obj
 0003:00000cf0       $SG26524                   000000018001ccf0     c4_HardwareDeploymentTest.obj
 0003:00000d34       $SG26551                   000000018001cd34     c4_HardwareDeploymentTest.obj
 0003:00000d40       $SG26527                   000000018001cd40     c4_HardwareDeploymentTest.obj
 0003:00000d84       $SG26554                   000000018001cd84     c4_HardwareDeploymentTest.obj
 0003:00000d90       $SG26531                   000000018001cd90     c4_HardwareDeploymentTest.obj
 0003:00000dd4       $SG26558                   000000018001cdd4     c4_HardwareDeploymentTest.obj
 0003:00000de0       $SG26534                   000000018001cde0     c4_HardwareDeploymentTest.obj
 0003:00000e24       $SG26561                   000000018001ce24     c4_HardwareDeploymentTest.obj
 0003:00000e30       $SG26538                   000000018001ce30     c4_HardwareDeploymentTest.obj
 0003:00000e74       $SG26565                   000000018001ce74     c4_HardwareDeploymentTest.obj
 0003:00000e80       $SG26541                   000000018001ce80     c4_HardwareDeploymentTest.obj
 0003:00000ec4       $SG26568                   000000018001cec4     c4_HardwareDeploymentTest.obj
 0003:00000ed0       $SG26545                   000000018001ced0     c4_HardwareDeploymentTest.obj
 0003:00000f14       $SG26572                   000000018001cf14     c4_HardwareDeploymentTest.obj
 0003:00000f20       $SG26548                   000000018001cf20     c4_HardwareDeploymentTest.obj
 0003:00000f64       $SG26575                   000000018001cf64     c4_HardwareDeploymentTest.obj
 0003:00000f70       $SG26552                   000000018001cf70     c4_HardwareDeploymentTest.obj
 0003:00000fb4       $SG26579                   000000018001cfb4     c4_HardwareDeploymentTest.obj
 0003:00000fc0       $SG26555                   000000018001cfc0     c4_HardwareDeploymentTest.obj
 0003:00001004       $SG26582                   000000018001d004     c4_HardwareDeploymentTest.obj
 0003:00001010       $SG26559                   000000018001d010     c4_HardwareDeploymentTest.obj
 0003:00001054       $SG26586                   000000018001d054     c4_HardwareDeploymentTest.obj
 0003:00001060       $SG26562                   000000018001d060     c4_HardwareDeploymentTest.obj
 0003:000010a4       $SG26589                   000000018001d0a4     c4_HardwareDeploymentTest.obj
 0003:000010b0       $SG26566                   000000018001d0b0     c4_HardwareDeploymentTest.obj
 0003:000010f4       $SG26593                   000000018001d0f4     c4_HardwareDeploymentTest.obj
 0003:00001100       $SG26569                   000000018001d100     c4_HardwareDeploymentTest.obj
 0003:00001144       $SG26596                   000000018001d144     c4_HardwareDeploymentTest.obj
 0003:00001150       $SG26573                   000000018001d150     c4_HardwareDeploymentTest.obj
 0003:00001194       $SG26600                   000000018001d194     c4_HardwareDeploymentTest.obj
 0003:000011a0       $SG26576                   000000018001d1a0     c4_HardwareDeploymentTest.obj
 0003:000011e4       $SG26603                   000000018001d1e4     c4_HardwareDeploymentTest.obj
 0003:000011f0       $SG26580                   000000018001d1f0     c4_HardwareDeploymentTest.obj
 0003:00001234       $SG26607                   000000018001d234     c4_HardwareDeploymentTest.obj
 0003:00001240       $SG26583                   000000018001d240     c4_HardwareDeploymentTest.obj
 0003:00001284       $SG26610                   000000018001d284     c4_HardwareDeploymentTest.obj
 0003:00001290       $SG26587                   000000018001d290     c4_HardwareDeploymentTest.obj
 0003:000012d4       $SG26614                   000000018001d2d4     c4_HardwareDeploymentTest.obj
 0003:000012e0       $SG26590                   000000018001d2e0     c4_HardwareDeploymentTest.obj
 0003:00001324       $SG26617                   000000018001d324     c4_HardwareDeploymentTest.obj
 0003:00001330       $SG26594                   000000018001d330     c4_HardwareDeploymentTest.obj
 0003:00001378       $SG26621                   000000018001d378     c4_HardwareDeploymentTest.obj
 0003:00001390       $SG26597                   000000018001d390     c4_HardwareDeploymentTest.obj
 0003:000013d8       $SG26624                   000000018001d3d8     c4_HardwareDeploymentTest.obj
 0003:000013f0       $SG26601                   000000018001d3f0     c4_HardwareDeploymentTest.obj
 0003:00001438       $SG26628                   000000018001d438     c4_HardwareDeploymentTest.obj
 0003:00001450       $SG26604                   000000018001d450     c4_HardwareDeploymentTest.obj
 0003:00001498       $SG26631                   000000018001d498     c4_HardwareDeploymentTest.obj
 0003:000014b0       $SG26608                   000000018001d4b0     c4_HardwareDeploymentTest.obj
 0003:000014f8       $SG26635                   000000018001d4f8     c4_HardwareDeploymentTest.obj
 0003:00001510       $SG26611                   000000018001d510     c4_HardwareDeploymentTest.obj
 0003:00001558       $SG26638                   000000018001d558     c4_HardwareDeploymentTest.obj
 0003:00001570       $SG26615                   000000018001d570     c4_HardwareDeploymentTest.obj
 0003:000015b8       $SG26642                   000000018001d5b8     c4_HardwareDeploymentTest.obj
 0003:000015d0       $SG26618                   000000018001d5d0     c4_HardwareDeploymentTest.obj
 0003:00001618       $SG26645                   000000018001d618     c4_HardwareDeploymentTest.obj
 0003:00001630       $SG26622                   000000018001d630     c4_HardwareDeploymentTest.obj
 0003:00001680       $SG26625                   000000018001d680     c4_HardwareDeploymentTest.obj
 0003:000016d0       $SG26629                   000000018001d6d0     c4_HardwareDeploymentTest.obj
 0003:00001720       $SG26632                   000000018001d720     c4_HardwareDeploymentTest.obj
 0003:00001770       $SG26636                   000000018001d770     c4_HardwareDeploymentTest.obj
 0003:000017c0       $SG26639                   000000018001d7c0     c4_HardwareDeploymentTest.obj
 0003:00001810       $SG26643                   000000018001d810     c4_HardwareDeploymentTest.obj
 0003:00001860       $SG26646                   000000018001d860     c4_HardwareDeploymentTest.obj
 0003:000018a8       $SG26649                   000000018001d8a8     c4_HardwareDeploymentTest.obj
 0003:000018c0       $SG26650                   000000018001d8c0     c4_HardwareDeploymentTest.obj
 0003:00001908       $SG26652                   000000018001d908     c4_HardwareDeploymentTest.obj
 0003:00001920       $SG26653                   000000018001d920     c4_HardwareDeploymentTest.obj
 0003:00001968       $SG26656                   000000018001d968     c4_HardwareDeploymentTest.obj
 0003:00001980       $SG26657                   000000018001d980     c4_HardwareDeploymentTest.obj
 0003:000019c8       $SG26659                   000000018001d9c8     c4_HardwareDeploymentTest.obj
 0003:000019e0       $SG26660                   000000018001d9e0     c4_HardwareDeploymentTest.obj
 0003:00001a28       $SG26663                   000000018001da28     c4_HardwareDeploymentTest.obj
 0003:00001a40       $SG26664                   000000018001da40     c4_HardwareDeploymentTest.obj
 0003:00001a88       $SG26666                   000000018001da88     c4_HardwareDeploymentTest.obj
 0003:00001aa0       $SG26667                   000000018001daa0     c4_HardwareDeploymentTest.obj
 0003:00001ae8       $SG26670                   000000018001dae8     c4_HardwareDeploymentTest.obj
 0003:00001b00       $SG26671                   000000018001db00     c4_HardwareDeploymentTest.obj
 0003:00001b48       $SG26673                   000000018001db48     c4_HardwareDeploymentTest.obj
 0003:00001b60       $SG26674                   000000018001db60     c4_HardwareDeploymentTest.obj
 0003:00001ba8       $SG26677                   000000018001dba8     c4_HardwareDeploymentTest.obj
 0003:00001bc0       $SG26678                   000000018001dbc0     c4_HardwareDeploymentTest.obj
 0003:00001c08       $SG26680                   000000018001dc08     c4_HardwareDeploymentTest.obj
 0003:00001c20       $SG26681                   000000018001dc20     c4_HardwareDeploymentTest.obj
 0003:00001c68       $SG26684                   000000018001dc68     c4_HardwareDeploymentTest.obj
 0003:00001c80       $SG26685                   000000018001dc80     c4_HardwareDeploymentTest.obj
 0003:00001cc8       $SG26687                   000000018001dcc8     c4_HardwareDeploymentTest.obj
 0003:00001ce0       $SG26688                   000000018001dce0     c4_HardwareDeploymentTest.obj
 0003:00001d28       c4_emlrtMCI                000000018001dd28     c4_HardwareDeploymentTest.obj
 0003:00001d40       c4_b_emlrtMCI              000000018001dd40     c4_HardwareDeploymentTest.obj
 0003:00001d58       c4_emlrtRSI                000000018001dd58     c4_HardwareDeploymentTest.obj
 0003:00001d70       c4_b_emlrtRSI              000000018001dd70     c4_HardwareDeploymentTest.obj
 0003:00001d88       c4_c_emlrtRSI              000000018001dd88     c4_HardwareDeploymentTest.obj
 0003:00001da0       c4_d_emlrtRSI              000000018001dda0     c4_HardwareDeploymentTest.obj
 0003:00001db8       c4_e_emlrtRSI              000000018001ddb8     c4_HardwareDeploymentTest.obj
 0003:00001dd0       c4_f_emlrtRSI              000000018001ddd0     c4_HardwareDeploymentTest.obj
 0003:00001de8       c4_g_emlrtRSI              000000018001dde8     c4_HardwareDeploymentTest.obj
 0003:00001e00       c4_h_emlrtRSI              000000018001de00     c4_HardwareDeploymentTest.obj
 0003:00001e18       c4_i_emlrtRSI              000000018001de18     c4_HardwareDeploymentTest.obj
 0003:00001e30       c4_l_emlrtRSI              000000018001de30     c4_HardwareDeploymentTest.obj
 0003:00001e48       c4_m_emlrtRSI              000000018001de48     c4_HardwareDeploymentTest.obj
 0003:00001e60       c4_n_emlrtRSI              000000018001de60     c4_HardwareDeploymentTest.obj
 0003:00001e78       c4_o_emlrtRSI              000000018001de78     c4_HardwareDeploymentTest.obj
 0003:00001e90       c4_emlrtBCI                000000018001de90     c4_HardwareDeploymentTest.obj
 0003:00001ec0       c4_emlrtDCI                000000018001dec0     c4_HardwareDeploymentTest.obj
 0003:00001ee0       c4_b_emlrtBCI              000000018001dee0     c4_HardwareDeploymentTest.obj
 0003:00001f10       c4_b_emlrtDCI              000000018001df10     c4_HardwareDeploymentTest.obj
 0003:00001f30       c4_c_emlrtBCI              000000018001df30     c4_HardwareDeploymentTest.obj
 0003:00001f60       c4_c_emlrtDCI              000000018001df60     c4_HardwareDeploymentTest.obj
 0003:00001f80       c4_d_emlrtBCI              000000018001df80     c4_HardwareDeploymentTest.obj
 0003:00001fb0       c4_d_emlrtDCI              000000018001dfb0     c4_HardwareDeploymentTest.obj
 0003:00001fd0       c4_e_emlrtBCI              000000018001dfd0     c4_HardwareDeploymentTest.obj
 0003:00002000       c4_e_emlrtDCI              000000018001e000     c4_HardwareDeploymentTest.obj
 0003:00002020       c4_f_emlrtBCI              000000018001e020     c4_HardwareDeploymentTest.obj
 0003:00002050       c4_f_emlrtDCI              000000018001e050     c4_HardwareDeploymentTest.obj
 0003:00002070       c4_g_emlrtBCI              000000018001e070     c4_HardwareDeploymentTest.obj
 0003:000020a0       c4_g_emlrtDCI              000000018001e0a0     c4_HardwareDeploymentTest.obj
 0003:000020c0       c4_h_emlrtBCI              000000018001e0c0     c4_HardwareDeploymentTest.obj
 0003:000020f0       c4_h_emlrtDCI              000000018001e0f0     c4_HardwareDeploymentTest.obj
 0003:00002110       c4_i_emlrtBCI              000000018001e110     c4_HardwareDeploymentTest.obj
 0003:00002140       c4_i_emlrtDCI              000000018001e140     c4_HardwareDeploymentTest.obj
 0003:00002160       c4_j_emlrtBCI              000000018001e160     c4_HardwareDeploymentTest.obj
 0003:00002190       c4_j_emlrtDCI              000000018001e190     c4_HardwareDeploymentTest.obj
 0003:000021b0       c4_k_emlrtBCI              000000018001e1b0     c4_HardwareDeploymentTest.obj
 0003:000021e0       c4_k_emlrtDCI              000000018001e1e0     c4_HardwareDeploymentTest.obj
 0003:00002200       c4_l_emlrtBCI              000000018001e200     c4_HardwareDeploymentTest.obj
 0003:00002230       c4_l_emlrtDCI              000000018001e230     c4_HardwareDeploymentTest.obj
 0003:00002250       c4_m_emlrtBCI              000000018001e250     c4_HardwareDeploymentTest.obj
 0003:00002280       c4_m_emlrtDCI              000000018001e280     c4_HardwareDeploymentTest.obj
 0003:000022a0       c4_n_emlrtBCI              000000018001e2a0     c4_HardwareDeploymentTest.obj
 0003:000022d0       c4_n_emlrtDCI              000000018001e2d0     c4_HardwareDeploymentTest.obj
 0003:000022f0       c4_o_emlrtBCI              000000018001e2f0     c4_HardwareDeploymentTest.obj
 0003:00002320       c4_o_emlrtDCI              000000018001e320     c4_HardwareDeploymentTest.obj
 0003:00002340       c4_p_emlrtBCI              000000018001e340     c4_HardwareDeploymentTest.obj
 0003:00002370       c4_p_emlrtDCI              000000018001e370     c4_HardwareDeploymentTest.obj
 0003:00002390       c4_q_emlrtBCI              000000018001e390     c4_HardwareDeploymentTest.obj
 0003:000023c0       c4_q_emlrtDCI              000000018001e3c0     c4_HardwareDeploymentTest.obj
 0003:000023e0       c4_r_emlrtBCI              000000018001e3e0     c4_HardwareDeploymentTest.obj
 0003:00002410       c4_r_emlrtDCI              000000018001e410     c4_HardwareDeploymentTest.obj
 0003:00002430       c4_s_emlrtBCI              000000018001e430     c4_HardwareDeploymentTest.obj
 0003:00002460       c4_s_emlrtDCI              000000018001e460     c4_HardwareDeploymentTest.obj
 0003:00002480       c4_t_emlrtBCI              000000018001e480     c4_HardwareDeploymentTest.obj
 0003:000024b0       c4_t_emlrtDCI              000000018001e4b0     c4_HardwareDeploymentTest.obj
 0003:000024d0       c4_u_emlrtBCI              000000018001e4d0     c4_HardwareDeploymentTest.obj
 0003:00002500       c4_u_emlrtDCI              000000018001e500     c4_HardwareDeploymentTest.obj
 0003:00002520       c4_v_emlrtBCI              000000018001e520     c4_HardwareDeploymentTest.obj
 0003:00002550       c4_v_emlrtDCI              000000018001e550     c4_HardwareDeploymentTest.obj
 0003:00002570       c4_w_emlrtBCI              000000018001e570     c4_HardwareDeploymentTest.obj
 0003:000025a0       c4_w_emlrtDCI              000000018001e5a0     c4_HardwareDeploymentTest.obj
 0003:000025c0       c4_x_emlrtBCI              000000018001e5c0     c4_HardwareDeploymentTest.obj
 0003:000025f0       c4_x_emlrtDCI              000000018001e5f0     c4_HardwareDeploymentTest.obj
 0003:00002610       c4_y_emlrtBCI              000000018001e610     c4_HardwareDeploymentTest.obj
 0003:00002640       c4_y_emlrtDCI              000000018001e640     c4_HardwareDeploymentTest.obj
 0003:00002660       c4_ab_emlrtBCI             000000018001e660     c4_HardwareDeploymentTest.obj
 0003:00002690       c4_ab_emlrtDCI             000000018001e690     c4_HardwareDeploymentTest.obj
 0003:000026b0       c4_bb_emlrtBCI             000000018001e6b0     c4_HardwareDeploymentTest.obj
 0003:000026e0       c4_bb_emlrtDCI             000000018001e6e0     c4_HardwareDeploymentTest.obj
 0003:00002700       c4_cb_emlrtBCI             000000018001e700     c4_HardwareDeploymentTest.obj
 0003:00002730       c4_cb_emlrtDCI             000000018001e730     c4_HardwareDeploymentTest.obj
 0003:00002750       c4_db_emlrtBCI             000000018001e750     c4_HardwareDeploymentTest.obj
 0003:00002780       c4_db_emlrtDCI             000000018001e780     c4_HardwareDeploymentTest.obj
 0003:000027a0       c4_eb_emlrtBCI             000000018001e7a0     c4_HardwareDeploymentTest.obj
 0003:000027d0       c4_eb_emlrtDCI             000000018001e7d0     c4_HardwareDeploymentTest.obj
 0003:000027f0       $SG26764                   000000018001e7f0     c4_HardwareDeploymentTest.obj
 0003:00002800       $SG26765                   000000018001e800     c4_HardwareDeploymentTest.obj
 0003:00002828       $SG26788                   000000018001e828     c4_HardwareDeploymentTest.obj
 0003:00002844       $SG27195                   000000018001e844     c4_HardwareDeploymentTest.obj
 0003:00002848       ?c4_cv4@?1??sf_gateway_c4_HardwareDeploymentTest@@9@9 000000018001e848     c4_HardwareDeploymentTest.obj
 0003:0000287c       $SG27196                   000000018001e87c     c4_HardwareDeploymentTest.obj
 0003:00002880       ?c4_cv1@?1??sf_gateway_c4_HardwareDeploymentTest@@9@9 000000018001e880     c4_HardwareDeploymentTest.obj
 0003:000028b0       ?c4_cv3@?1??sf_gateway_c4_HardwareDeploymentTest@@9@9 000000018001e8b0     c4_HardwareDeploymentTest.obj
 0003:000028d8       ?c4_cv@?1??sf_gateway_c4_HardwareDeploymentTest@@9@9 000000018001e8d8     c4_HardwareDeploymentTest.obj
 0003:000028f8       ?c4_cv2@?1??sf_gateway_c4_HardwareDeploymentTest@@9@9 000000018001e8f8     c4_HardwareDeploymentTest.obj
 0003:00002900       ?c4_cv5@?1??sf_gateway_c4_HardwareDeploymentTest@@9@9 000000018001e900     c4_HardwareDeploymentTest.obj
 0003:00002908       $SG27197                   000000018001e908     c4_HardwareDeploymentTest.obj
 0003:0000290c       $SG27206                   000000018001e90c     c4_HardwareDeploymentTest.obj
 0003:00002910       $SG27198                   000000018001e910     c4_HardwareDeploymentTest.obj
 0003:00002918       $SG27199                   000000018001e918     c4_HardwareDeploymentTest.obj
 0003:00002924       $SG27200                   000000018001e924     c4_HardwareDeploymentTest.obj
 0003:0000292c       $SG27207                   000000018001e92c     c4_HardwareDeploymentTest.obj
 0003:00002930       $SG27208                   000000018001e930     c4_HardwareDeploymentTest.obj
 0003:00002934       $SG27271                   000000018001e934     c4_HardwareDeploymentTest.obj
 0003:00002938       $SG27209                   000000018001e938     c4_HardwareDeploymentTest.obj
 0003:00002940       $SG27210                   000000018001e940     c4_HardwareDeploymentTest.obj
 0003:0000294c       $SG27211                   000000018001e94c     c4_HardwareDeploymentTest.obj
 0003:00002958       $SG27282                   000000018001e958     c4_HardwareDeploymentTest.obj
 0003:00002960       $SG27289                   000000018001e960     c4_HardwareDeploymentTest.obj
 0003:00002970       $SG27343                   000000018001e970     c4_HardwareDeploymentTest.obj
 0003:000029a8       $SG27344                   000000018001e9a8     c4_HardwareDeploymentTest.obj
 0003:000029e0       $SG27356                   000000018001e9e0     c4_HardwareDeploymentTest.obj
 0003:000029f0       $SG27358                   000000018001e9f0     c4_HardwareDeploymentTest.obj
 0003:00002a00       $SG27360                   000000018001ea00     c4_HardwareDeploymentTest.obj
 0003:00002a18       $SG27362                   000000018001ea18     c4_HardwareDeploymentTest.obj
 0003:00002a30       $SG27364                   000000018001ea30     c4_HardwareDeploymentTest.obj
 0003:00002a44       $SG27365                   000000018001ea44     c4_HardwareDeploymentTest.obj
 0003:00002a50       $SG27366                   000000018001ea50     c4_HardwareDeploymentTest.obj
 0003:00002a68       $SG27369                   000000018001ea68     c4_HardwareDeploymentTest.obj
 0003:00002a80       $SG27382                   000000018001ea80     c4_HardwareDeploymentTest.obj
 0003:00002a90       $SG27384                   000000018001ea90     c4_HardwareDeploymentTest.obj
 0003:00002a98       $SG27507                   000000018001ea98     c4_HardwareDeploymentTest.obj
 0003:00002aa0       $SG27385                   000000018001eaa0     c4_HardwareDeploymentTest.obj
 0003:00002b38       $SG27520                   000000018001eb38     c4_HardwareDeploymentTest.obj
 0003:00002b48       $SG27521                   000000018001eb48     c4_HardwareDeploymentTest.obj
 0003:00002b60       $SG27469                   000000018001eb60     c4_HardwareDeploymentTest.obj
 0003:00002bb0       $SG27471                   000000018001ebb0     c4_HardwareDeploymentTest.obj
 0003:00002c00       $SG27473                   000000018001ec00     c4_HardwareDeploymentTest.obj
 0003:00002c50       $SG27475                   000000018001ec50     c4_HardwareDeploymentTest.obj
 0003:00002ca0       $SG27477                   000000018001eca0     c4_HardwareDeploymentTest.obj
 0003:00002cf0       $SG27479                   000000018001ecf0     c4_HardwareDeploymentTest.obj
 0003:00002d40       $SG27481                   000000018001ed40     c4_HardwareDeploymentTest.obj
 0003:00002d90       $SG27483                   000000018001ed90     c4_HardwareDeploymentTest.obj
 0003:00002de0       $SG27485                   000000018001ede0     c4_HardwareDeploymentTest.obj
 0003:00002e30       $SG27487                   000000018001ee30     c4_HardwareDeploymentTest.obj
 0003:00002e80       $SG27489                   000000018001ee80     c4_HardwareDeploymentTest.obj
 0003:00002ed0       $SG27491                   000000018001eed0     c4_HardwareDeploymentTest.obj
 0003:00002f20       $SG27493                   000000018001ef20     c4_HardwareDeploymentTest.obj
 0003:00002f70       $SG27495                   000000018001ef70     c4_HardwareDeploymentTest.obj
 0003:00002fc0       $SG27497                   000000018001efc0     c4_HardwareDeploymentTest.obj
 0003:00003010       $SG27499                   000000018001f010     c4_HardwareDeploymentTest.obj
 0003:00003060       $SG27501                   000000018001f060     c4_HardwareDeploymentTest.obj
 0003:000030b0       $SG27503                   000000018001f0b0     c4_HardwareDeploymentTest.obj
 0003:00003100       $SG27505                   000000018001f100     c4_HardwareDeploymentTest.obj
 0003:00003150       $SG27543                   000000018001f150     c4_HardwareDeploymentTest.obj
 0003:00003180       $SG27558                   000000018001f180     c4_HardwareDeploymentTest.obj
 0003:000031f0       $SG26360                   000000018001f1f0     c11_HardwareDeploymentTest.obj
 0003:00003220       $SG26361                   000000018001f220     c11_HardwareDeploymentTest.obj
 0003:00003240       $SG26363                   000000018001f240     c11_HardwareDeploymentTest.obj
 0003:00003250       $SG26364                   000000018001f250     c11_HardwareDeploymentTest.obj
 0003:00003298       $SG26366                   000000018001f298     c11_HardwareDeploymentTest.obj
 0003:000032a8       $SG26369                   000000018001f2a8     c11_HardwareDeploymentTest.obj
 0003:000032b0       $SG26367                   000000018001f2b0     c11_HardwareDeploymentTest.obj
 0003:00003300       $SG26370                   000000018001f300     c11_HardwareDeploymentTest.obj
 0003:00003350       $SG26476                   000000018001f350     c11_HardwareDeploymentTest.obj
 0003:00003360       $SG26477                   000000018001f360     c11_HardwareDeploymentTest.obj
 0003:00003388       $SG26500                   000000018001f388     c11_HardwareDeploymentTest.obj
 0003:000033a4       $SG26713                   000000018001f3a4     c11_HardwareDeploymentTest.obj
 0003:000033a8       $SG26714                   000000018001f3a8     c11_HardwareDeploymentTest.obj
 0003:000033ac       $SG26715                   000000018001f3ac     c11_HardwareDeploymentTest.obj
 0003:000033b0       $SG26716                   000000018001f3b0     c11_HardwareDeploymentTest.obj
 0003:000033b4       $SG26717                   000000018001f3b4     c11_HardwareDeploymentTest.obj
 0003:000033b8       $SG26718                   000000018001f3b8     c11_HardwareDeploymentTest.obj
 0003:000033bc       $SG26719                   000000018001f3bc     c11_HardwareDeploymentTest.obj
 0003:000033c0       $SG26720                   000000018001f3c0     c11_HardwareDeploymentTest.obj
 0003:000033c4       $SG26767                   000000018001f3c4     c11_HardwareDeploymentTest.obj
 0003:000033c8       $SG26768                   000000018001f3c8     c11_HardwareDeploymentTest.obj
 0003:000033cc       $SG26769                   000000018001f3cc     c11_HardwareDeploymentTest.obj
 0003:000033d0       $SG26770                   000000018001f3d0     c11_HardwareDeploymentTest.obj
 0003:000033d4       $SG26771                   000000018001f3d4     c11_HardwareDeploymentTest.obj
 0003:000033d8       $SG26772                   000000018001f3d8     c11_HardwareDeploymentTest.obj
 0003:000033dc       $SG26773                   000000018001f3dc     c11_HardwareDeploymentTest.obj
 0003:000033e0       $SG26774                   000000018001f3e0     c11_HardwareDeploymentTest.obj
 0003:000033e8       $SG26781                   000000018001f3e8     c11_HardwareDeploymentTest.obj
 0003:000033f8       $SG26878                   000000018001f3f8     c11_HardwareDeploymentTest.obj
 0003:00003430       $SG26890                   000000018001f430     c11_HardwareDeploymentTest.obj
 0003:00003440       $SG26892                   000000018001f440     c11_HardwareDeploymentTest.obj
 0003:00003450       $SG26894                   000000018001f450     c11_HardwareDeploymentTest.obj
 0003:00003468       $SG26896                   000000018001f468     c11_HardwareDeploymentTest.obj
 0003:00003480       $SG26898                   000000018001f480     c11_HardwareDeploymentTest.obj
 0003:00003494       $SG26899                   000000018001f494     c11_HardwareDeploymentTest.obj
 0003:000034a0       $SG26900                   000000018001f4a0     c11_HardwareDeploymentTest.obj
 0003:000034b8       $SG26903                   000000018001f4b8     c11_HardwareDeploymentTest.obj
 0003:000034c8       $SG26916                   000000018001f4c8     c11_HardwareDeploymentTest.obj
 0003:000034d8       $SG26918                   000000018001f4d8     c11_HardwareDeploymentTest.obj
 0003:000034e0       $SG26919                   000000018001f4e0     c11_HardwareDeploymentTest.obj
 0003:000035c8       $SG27056                   000000018001f5c8     c11_HardwareDeploymentTest.obj
 0003:000035d8       $SG27057                   000000018001f5d8     c11_HardwareDeploymentTest.obj
 0003:000035f0       $SG27003                   000000018001f5f0     c11_HardwareDeploymentTest.obj
 0003:00003640       $SG27005                   000000018001f640     c11_HardwareDeploymentTest.obj
 0003:00003690       $SG27007                   000000018001f690     c11_HardwareDeploymentTest.obj
 0003:000036e0       $SG27009                   000000018001f6e0     c11_HardwareDeploymentTest.obj
 0003:00003730       $SG27011                   000000018001f730     c11_HardwareDeploymentTest.obj
 0003:00003780       $SG27013                   000000018001f780     c11_HardwareDeploymentTest.obj
 0003:000037d0       $SG27015                   000000018001f7d0     c11_HardwareDeploymentTest.obj
 0003:00003820       $SG27017                   000000018001f820     c11_HardwareDeploymentTest.obj
 0003:00003870       $SG27019                   000000018001f870     c11_HardwareDeploymentTest.obj
 0003:000038c0       $SG27021                   000000018001f8c0     c11_HardwareDeploymentTest.obj
 0003:00003910       $SG27023                   000000018001f910     c11_HardwareDeploymentTest.obj
 0003:00003960       $SG27025                   000000018001f960     c11_HardwareDeploymentTest.obj
 0003:000039b0       $SG27027                   000000018001f9b0     c11_HardwareDeploymentTest.obj
 0003:00003a00       $SG27029                   000000018001fa00     c11_HardwareDeploymentTest.obj
 0003:00003a50       $SG27031                   000000018001fa50     c11_HardwareDeploymentTest.obj
 0003:00003aa0       $SG27033                   000000018001faa0     c11_HardwareDeploymentTest.obj
 0003:00003af0       $SG27035                   000000018001faf0     c11_HardwareDeploymentTest.obj
 0003:00003b40       $SG27037                   000000018001fb40     c11_HardwareDeploymentTest.obj
 0003:00003b90       $SG27039                   000000018001fb90     c11_HardwareDeploymentTest.obj
 0003:00003be0       $SG27041                   000000018001fbe0     c11_HardwareDeploymentTest.obj
 0003:00003c30       $SG27043                   000000018001fc30     c11_HardwareDeploymentTest.obj
 0003:00003c50       $SG27079                   000000018001fc50     c11_HardwareDeploymentTest.obj
 0003:00003c80       $SG27094                   000000018001fc80     c11_HardwareDeploymentTest.obj
 0003:00003cf0       $SG26422                   000000018001fcf0     c14_HardwareDeploymentTest.obj
 0003:00003d00       $SG26423                   000000018001fd00     c14_HardwareDeploymentTest.obj
 0003:00003d60       $SG26425                   000000018001fd60     c14_HardwareDeploymentTest.obj
 0003:00003d74       $SG26428                   000000018001fd74     c14_HardwareDeploymentTest.obj
 0003:00003d80       $SG26426                   000000018001fd80     c14_HardwareDeploymentTest.obj
 0003:00003de0       $SG26429                   000000018001fde0     c14_HardwareDeploymentTest.obj
 0003:00003e28       $SG26431                   000000018001fe28     c14_HardwareDeploymentTest.obj
 0003:00003e58       $SG26432                   000000018001fe58     c14_HardwareDeploymentTest.obj
 0003:00003e78       $SG26434                   000000018001fe78     c14_HardwareDeploymentTest.obj
 0003:00003e84       $SG26440                   000000018001fe84     c14_HardwareDeploymentTest.obj
 0003:00003e90       $SG26435                   000000018001fe90     c14_HardwareDeploymentTest.obj
 0003:00003ed8       $SG26437                   000000018001fed8     c14_HardwareDeploymentTest.obj
 0003:00003ee4       $SG26443                   000000018001fee4     c14_HardwareDeploymentTest.obj
 0003:00003ef0       $SG26438                   000000018001fef0     c14_HardwareDeploymentTest.obj
 0003:00003f38       $SG26446                   000000018001ff38     c14_HardwareDeploymentTest.obj
 0003:00003f40       $SG26441                   000000018001ff40     c14_HardwareDeploymentTest.obj
 0003:00003f84       $SG26449                   000000018001ff84     c14_HardwareDeploymentTest.obj
 0003:00003f90       $SG26444                   000000018001ff90     c14_HardwareDeploymentTest.obj
 0003:00003fd8       $SG26452                   000000018001ffd8     c14_HardwareDeploymentTest.obj
 0003:00003fe0       $SG26447                   000000018001ffe0     c14_HardwareDeploymentTest.obj
 0003:00004028       $SG26455                   0000000180020028     c14_HardwareDeploymentTest.obj
 0003:00004038       $SG26461                   0000000180020038     c14_HardwareDeploymentTest.obj
 0003:00004050       $SG26450                   0000000180020050     c14_HardwareDeploymentTest.obj
 0003:00004098       $SG26458                   0000000180020098     c14_HardwareDeploymentTest.obj
 0003:000040a4       $SG26464                   00000001800200a4     c14_HardwareDeploymentTest.obj
 0003:000040b0       $SG26453                   00000001800200b0     c14_HardwareDeploymentTest.obj
 0003:0000410c       $SG26467                   000000018002010c     c14_HardwareDeploymentTest.obj
 0003:00004114       $SG26471                   0000000180020114     c14_HardwareDeploymentTest.obj
 0003:00004120       $SG26456                   0000000180020120     c14_HardwareDeploymentTest.obj
 0003:00004168       $SG26474                   0000000180020168     c14_HardwareDeploymentTest.obj
 0003:00004170       $SG26459                   0000000180020170     c14_HardwareDeploymentTest.obj
 0003:000041b8       $SG26478                   00000001800201b8     c14_HardwareDeploymentTest.obj
 0003:000041c0       $SG26462                   00000001800201c0     c14_HardwareDeploymentTest.obj
 0003:00004210       $SG26465                   0000000180020210     c14_HardwareDeploymentTest.obj
 0003:00004258       $SG26481                   0000000180020258     c14_HardwareDeploymentTest.obj
 0003:00004260       $SG26468                   0000000180020260     c14_HardwareDeploymentTest.obj
 0003:000042a4       $SG26485                   00000001800202a4     c14_HardwareDeploymentTest.obj
 0003:000042b0       $SG26472                   00000001800202b0     c14_HardwareDeploymentTest.obj
 0003:000042f4       $SG26488                   00000001800202f4     c14_HardwareDeploymentTest.obj
 0003:00004300       $SG26475                   0000000180020300     c14_HardwareDeploymentTest.obj
 0003:00004344       $SG26492                   0000000180020344     c14_HardwareDeploymentTest.obj
 0003:00004350       $SG26479                   0000000180020350     c14_HardwareDeploymentTest.obj
 0003:00004394       $SG26495                   0000000180020394     c14_HardwareDeploymentTest.obj
 0003:000043a0       $SG26482                   00000001800203a0     c14_HardwareDeploymentTest.obj
 0003:000043e4       $SG26499                   00000001800203e4     c14_HardwareDeploymentTest.obj
 0003:000043f0       $SG26486                   00000001800203f0     c14_HardwareDeploymentTest.obj
 0003:00004434       $SG26502                   0000000180020434     c14_HardwareDeploymentTest.obj
 0003:00004440       $SG26489                   0000000180020440     c14_HardwareDeploymentTest.obj
 0003:00004484       $SG26506                   0000000180020484     c14_HardwareDeploymentTest.obj
 0003:00004490       $SG26493                   0000000180020490     c14_HardwareDeploymentTest.obj
 0003:000044d4       $SG26509                   00000001800204d4     c14_HardwareDeploymentTest.obj
 0003:000044e0       $SG26496                   00000001800204e0     c14_HardwareDeploymentTest.obj
 0003:00004524       $SG26513                   0000000180020524     c14_HardwareDeploymentTest.obj
 0003:00004530       $SG26500                   0000000180020530     c14_HardwareDeploymentTest.obj
 0003:00004574       $SG26516                   0000000180020574     c14_HardwareDeploymentTest.obj
 0003:00004580       $SG26503                   0000000180020580     c14_HardwareDeploymentTest.obj
 0003:000045c4       $SG26520                   00000001800205c4     c14_HardwareDeploymentTest.obj
 0003:000045d0       $SG26507                   00000001800205d0     c14_HardwareDeploymentTest.obj
 0003:00004614       $SG26523                   0000000180020614     c14_HardwareDeploymentTest.obj
 0003:00004620       $SG26510                   0000000180020620     c14_HardwareDeploymentTest.obj
 0003:00004664       $SG26527                   0000000180020664     c14_HardwareDeploymentTest.obj
 0003:00004670       $SG26514                   0000000180020670     c14_HardwareDeploymentTest.obj
 0003:000046b4       $SG26530                   00000001800206b4     c14_HardwareDeploymentTest.obj
 0003:000046c0       $SG26517                   00000001800206c0     c14_HardwareDeploymentTest.obj
 0003:00004704       $SG26534                   0000000180020704     c14_HardwareDeploymentTest.obj
 0003:00004710       $SG26521                   0000000180020710     c14_HardwareDeploymentTest.obj
 0003:00004754       $SG26537                   0000000180020754     c14_HardwareDeploymentTest.obj
 0003:00004760       $SG26524                   0000000180020760     c14_HardwareDeploymentTest.obj
 0003:000047a4       $SG26541                   00000001800207a4     c14_HardwareDeploymentTest.obj
 0003:000047b0       $SG26528                   00000001800207b0     c14_HardwareDeploymentTest.obj
 0003:000047f4       $SG26544                   00000001800207f4     c14_HardwareDeploymentTest.obj
 0003:00004800       $SG26531                   0000000180020800     c14_HardwareDeploymentTest.obj
 0003:00004844       $SG26548                   0000000180020844     c14_HardwareDeploymentTest.obj
 0003:00004850       $SG26535                   0000000180020850     c14_HardwareDeploymentTest.obj
 0003:00004894       $SG26551                   0000000180020894     c14_HardwareDeploymentTest.obj
 0003:000048a0       $SG26538                   00000001800208a0     c14_HardwareDeploymentTest.obj
 0003:000048e4       $SG26555                   00000001800208e4     c14_HardwareDeploymentTest.obj
 0003:000048f0       $SG26542                   00000001800208f0     c14_HardwareDeploymentTest.obj
 0003:00004934       $SG26558                   0000000180020934     c14_HardwareDeploymentTest.obj
 0003:00004940       $SG26545                   0000000180020940     c14_HardwareDeploymentTest.obj
 0003:00004984       $SG26562                   0000000180020984     c14_HardwareDeploymentTest.obj
 0003:00004990       $SG26549                   0000000180020990     c14_HardwareDeploymentTest.obj
 0003:000049d4       $SG26565                   00000001800209d4     c14_HardwareDeploymentTest.obj
 0003:000049e0       $SG26552                   00000001800209e0     c14_HardwareDeploymentTest.obj
 0003:00004a24       $SG26569                   0000000180020a24     c14_HardwareDeploymentTest.obj
 0003:00004a30       $SG26556                   0000000180020a30     c14_HardwareDeploymentTest.obj
 0003:00004a74       $SG26572                   0000000180020a74     c14_HardwareDeploymentTest.obj
 0003:00004a80       $SG26559                   0000000180020a80     c14_HardwareDeploymentTest.obj
 0003:00004ac4       $SG26576                   0000000180020ac4     c14_HardwareDeploymentTest.obj
 0003:00004ad0       $SG26563                   0000000180020ad0     c14_HardwareDeploymentTest.obj
 0003:00004b14       $SG26579                   0000000180020b14     c14_HardwareDeploymentTest.obj
 0003:00004b20       $SG26566                   0000000180020b20     c14_HardwareDeploymentTest.obj
 0003:00004b64       $SG26583                   0000000180020b64     c14_HardwareDeploymentTest.obj
 0003:00004b70       $SG26570                   0000000180020b70     c14_HardwareDeploymentTest.obj
 0003:00004bb4       $SG26586                   0000000180020bb4     c14_HardwareDeploymentTest.obj
 0003:00004bc0       $SG26573                   0000000180020bc0     c14_HardwareDeploymentTest.obj
 0003:00004c04       $SG26590                   0000000180020c04     c14_HardwareDeploymentTest.obj
 0003:00004c10       $SG26577                   0000000180020c10     c14_HardwareDeploymentTest.obj
 0003:00004c54       $SG26593                   0000000180020c54     c14_HardwareDeploymentTest.obj
 0003:00004c60       $SG26580                   0000000180020c60     c14_HardwareDeploymentTest.obj
 0003:00004ca4       $SG26597                   0000000180020ca4     c14_HardwareDeploymentTest.obj
 0003:00004cb0       $SG26584                   0000000180020cb0     c14_HardwareDeploymentTest.obj
 0003:00004cf4       $SG26600                   0000000180020cf4     c14_HardwareDeploymentTest.obj
 0003:00004d00       $SG26587                   0000000180020d00     c14_HardwareDeploymentTest.obj
 0003:00004d44       $SG26604                   0000000180020d44     c14_HardwareDeploymentTest.obj
 0003:00004d50       $SG26591                   0000000180020d50     c14_HardwareDeploymentTest.obj
 0003:00004d94       $SG26607                   0000000180020d94     c14_HardwareDeploymentTest.obj
 0003:00004da0       $SG26594                   0000000180020da0     c14_HardwareDeploymentTest.obj
 0003:00004de8       $SG26611                   0000000180020de8     c14_HardwareDeploymentTest.obj
 0003:00004e00       $SG26598                   0000000180020e00     c14_HardwareDeploymentTest.obj
 0003:00004e48       $SG26614                   0000000180020e48     c14_HardwareDeploymentTest.obj
 0003:00004e60       $SG26601                   0000000180020e60     c14_HardwareDeploymentTest.obj
 0003:00004ea8       $SG26618                   0000000180020ea8     c14_HardwareDeploymentTest.obj
 0003:00004ec0       $SG26605                   0000000180020ec0     c14_HardwareDeploymentTest.obj
 0003:00004f08       $SG26621                   0000000180020f08     c14_HardwareDeploymentTest.obj
 0003:00004f20       $SG26608                   0000000180020f20     c14_HardwareDeploymentTest.obj
 0003:00004f68       $SG26625                   0000000180020f68     c14_HardwareDeploymentTest.obj
 0003:00004f80       $SG26612                   0000000180020f80     c14_HardwareDeploymentTest.obj
 0003:00004fd0       $SG26615                   0000000180020fd0     c14_HardwareDeploymentTest.obj
 0003:00005020       $SG26619                   0000000180021020     c14_HardwareDeploymentTest.obj
 0003:00005070       $SG26622                   0000000180021070     c14_HardwareDeploymentTest.obj
 0003:000050c0       $SG26626                   00000001800210c0     c14_HardwareDeploymentTest.obj
 0003:00005108       $SG26628                   0000000180021108     c14_HardwareDeploymentTest.obj
 0003:00005120       $SG26629                   0000000180021120     c14_HardwareDeploymentTest.obj
 0003:00005168       $SG26632                   0000000180021168     c14_HardwareDeploymentTest.obj
 0003:00005180       $SG26633                   0000000180021180     c14_HardwareDeploymentTest.obj
 0003:000051c8       $SG26635                   00000001800211c8     c14_HardwareDeploymentTest.obj
 0003:000051e0       $SG26636                   00000001800211e0     c14_HardwareDeploymentTest.obj
 0003:00005228       $SG26639                   0000000180021228     c14_HardwareDeploymentTest.obj
 0003:00005240       $SG26640                   0000000180021240     c14_HardwareDeploymentTest.obj
 0003:00005288       $SG26642                   0000000180021288     c14_HardwareDeploymentTest.obj
 0003:000052a0       $SG26643                   00000001800212a0     c14_HardwareDeploymentTest.obj
 0003:000052e8       $SG26646                   00000001800212e8     c14_HardwareDeploymentTest.obj
 0003:00005300       $SG26647                   0000000180021300     c14_HardwareDeploymentTest.obj
 0003:00005348       $SG26649                   0000000180021348     c14_HardwareDeploymentTest.obj
 0003:00005360       $SG26650                   0000000180021360     c14_HardwareDeploymentTest.obj
 0003:000053a8       $SG26653                   00000001800213a8     c14_HardwareDeploymentTest.obj
 0003:000053c0       $SG26654                   00000001800213c0     c14_HardwareDeploymentTest.obj
 0003:00005408       $SG26656                   0000000180021408     c14_HardwareDeploymentTest.obj
 0003:00005420       $SG26657                   0000000180021420     c14_HardwareDeploymentTest.obj
 0003:00005468       $SG26660                   0000000180021468     c14_HardwareDeploymentTest.obj
 0003:00005480       $SG26661                   0000000180021480     c14_HardwareDeploymentTest.obj
 0003:000054c8       $SG26663                   00000001800214c8     c14_HardwareDeploymentTest.obj
 0003:000054e0       $SG26664                   00000001800214e0     c14_HardwareDeploymentTest.obj
 0003:00005528       $SG26667                   0000000180021528     c14_HardwareDeploymentTest.obj
 0003:00005540       $SG26668                   0000000180021540     c14_HardwareDeploymentTest.obj
 0003:00005588       $SG26670                   0000000180021588     c14_HardwareDeploymentTest.obj
 0003:000055a0       $SG26671                   00000001800215a0     c14_HardwareDeploymentTest.obj
 0003:000055e8       $SG26674                   00000001800215e8     c14_HardwareDeploymentTest.obj
 0003:00005600       $SG26675                   0000000180021600     c14_HardwareDeploymentTest.obj
 0003:00005648       $SG26677                   0000000180021648     c14_HardwareDeploymentTest.obj
 0003:00005660       $SG26678                   0000000180021660     c14_HardwareDeploymentTest.obj
 0003:000056a8       c14_emlrtMCI               00000001800216a8     c14_HardwareDeploymentTest.obj
 0003:000056c0       c14_b_emlrtMCI             00000001800216c0     c14_HardwareDeploymentTest.obj
 0003:000056d8       c14_emlrtRSI               00000001800216d8     c14_HardwareDeploymentTest.obj
 0003:000056f0       c14_b_emlrtRSI             00000001800216f0     c14_HardwareDeploymentTest.obj
 0003:00005708       c14_c_emlrtRSI             0000000180021708     c14_HardwareDeploymentTest.obj
 0003:00005720       c14_d_emlrtRSI             0000000180021720     c14_HardwareDeploymentTest.obj
 0003:00005738       c14_e_emlrtRSI             0000000180021738     c14_HardwareDeploymentTest.obj
 0003:00005750       c14_f_emlrtRSI             0000000180021750     c14_HardwareDeploymentTest.obj
 0003:00005768       c14_i_emlrtRSI             0000000180021768     c14_HardwareDeploymentTest.obj
 0003:00005780       c14_j_emlrtRSI             0000000180021780     c14_HardwareDeploymentTest.obj
 0003:00005798       c14_k_emlrtRSI             0000000180021798     c14_HardwareDeploymentTest.obj
 0003:000057b0       c14_l_emlrtRSI             00000001800217b0     c14_HardwareDeploymentTest.obj
 0003:000057c8       c14_emlrtBCI               00000001800217c8     c14_HardwareDeploymentTest.obj
 0003:000057f8       c14_emlrtDCI               00000001800217f8     c14_HardwareDeploymentTest.obj
 0003:00005818       c14_b_emlrtBCI             0000000180021818     c14_HardwareDeploymentTest.obj
 0003:00005848       c14_b_emlrtDCI             0000000180021848     c14_HardwareDeploymentTest.obj
 0003:00005868       c14_c_emlrtBCI             0000000180021868     c14_HardwareDeploymentTest.obj
 0003:00005898       c14_c_emlrtDCI             0000000180021898     c14_HardwareDeploymentTest.obj
 0003:000058b8       c14_d_emlrtBCI             00000001800218b8     c14_HardwareDeploymentTest.obj
 0003:000058e8       c14_d_emlrtDCI             00000001800218e8     c14_HardwareDeploymentTest.obj
 0003:00005908       c14_e_emlrtBCI             0000000180021908     c14_HardwareDeploymentTest.obj
 0003:00005938       c14_e_emlrtDCI             0000000180021938     c14_HardwareDeploymentTest.obj
 0003:00005958       c14_f_emlrtBCI             0000000180021958     c14_HardwareDeploymentTest.obj
 0003:00005988       c14_f_emlrtDCI             0000000180021988     c14_HardwareDeploymentTest.obj
 0003:000059a8       c14_g_emlrtBCI             00000001800219a8     c14_HardwareDeploymentTest.obj
 0003:000059d8       c14_g_emlrtDCI             00000001800219d8     c14_HardwareDeploymentTest.obj
 0003:000059f8       c14_h_emlrtBCI             00000001800219f8     c14_HardwareDeploymentTest.obj
 0003:00005a28       c14_h_emlrtDCI             0000000180021a28     c14_HardwareDeploymentTest.obj
 0003:00005a48       c14_i_emlrtBCI             0000000180021a48     c14_HardwareDeploymentTest.obj
 0003:00005a78       c14_i_emlrtDCI             0000000180021a78     c14_HardwareDeploymentTest.obj
 0003:00005a98       c14_j_emlrtBCI             0000000180021a98     c14_HardwareDeploymentTest.obj
 0003:00005ac8       c14_j_emlrtDCI             0000000180021ac8     c14_HardwareDeploymentTest.obj
 0003:00005ae8       c14_k_emlrtBCI             0000000180021ae8     c14_HardwareDeploymentTest.obj
 0003:00005b18       c14_k_emlrtDCI             0000000180021b18     c14_HardwareDeploymentTest.obj
 0003:00005b38       c14_l_emlrtBCI             0000000180021b38     c14_HardwareDeploymentTest.obj
 0003:00005b68       c14_l_emlrtDCI             0000000180021b68     c14_HardwareDeploymentTest.obj
 0003:00005b88       c14_m_emlrtBCI             0000000180021b88     c14_HardwareDeploymentTest.obj
 0003:00005bb8       c14_m_emlrtDCI             0000000180021bb8     c14_HardwareDeploymentTest.obj
 0003:00005bd8       c14_n_emlrtBCI             0000000180021bd8     c14_HardwareDeploymentTest.obj
 0003:00005c08       c14_n_emlrtDCI             0000000180021c08     c14_HardwareDeploymentTest.obj
 0003:00005c28       c14_o_emlrtBCI             0000000180021c28     c14_HardwareDeploymentTest.obj
 0003:00005c58       c14_o_emlrtDCI             0000000180021c58     c14_HardwareDeploymentTest.obj
 0003:00005c78       c14_p_emlrtBCI             0000000180021c78     c14_HardwareDeploymentTest.obj
 0003:00005ca8       c14_p_emlrtDCI             0000000180021ca8     c14_HardwareDeploymentTest.obj
 0003:00005cc8       c14_q_emlrtBCI             0000000180021cc8     c14_HardwareDeploymentTest.obj
 0003:00005cf8       c14_q_emlrtDCI             0000000180021cf8     c14_HardwareDeploymentTest.obj
 0003:00005d18       c14_r_emlrtBCI             0000000180021d18     c14_HardwareDeploymentTest.obj
 0003:00005d48       c14_r_emlrtDCI             0000000180021d48     c14_HardwareDeploymentTest.obj
 0003:00005d68       c14_s_emlrtBCI             0000000180021d68     c14_HardwareDeploymentTest.obj
 0003:00005d98       c14_s_emlrtDCI             0000000180021d98     c14_HardwareDeploymentTest.obj
 0003:00005db8       c14_t_emlrtBCI             0000000180021db8     c14_HardwareDeploymentTest.obj
 0003:00005de8       c14_t_emlrtDCI             0000000180021de8     c14_HardwareDeploymentTest.obj
 0003:00005e08       c14_u_emlrtBCI             0000000180021e08     c14_HardwareDeploymentTest.obj
 0003:00005e38       c14_u_emlrtDCI             0000000180021e38     c14_HardwareDeploymentTest.obj
 0003:00005e58       c14_v_emlrtBCI             0000000180021e58     c14_HardwareDeploymentTest.obj
 0003:00005e88       c14_v_emlrtDCI             0000000180021e88     c14_HardwareDeploymentTest.obj
 0003:00005ea8       c14_w_emlrtBCI             0000000180021ea8     c14_HardwareDeploymentTest.obj
 0003:00005ed8       c14_w_emlrtDCI             0000000180021ed8     c14_HardwareDeploymentTest.obj
 0003:00005ef8       c14_x_emlrtBCI             0000000180021ef8     c14_HardwareDeploymentTest.obj
 0003:00005f28       c14_x_emlrtDCI             0000000180021f28     c14_HardwareDeploymentTest.obj
 0003:00005f48       c14_y_emlrtBCI             0000000180021f48     c14_HardwareDeploymentTest.obj
 0003:00005f78       c14_y_emlrtDCI             0000000180021f78     c14_HardwareDeploymentTest.obj
 0003:00005f98       c14_ab_emlrtBCI            0000000180021f98     c14_HardwareDeploymentTest.obj
 0003:00005fc8       c14_ab_emlrtDCI            0000000180021fc8     c14_HardwareDeploymentTest.obj
 0003:00005fe8       c14_bb_emlrtBCI            0000000180021fe8     c14_HardwareDeploymentTest.obj
 0003:00006018       c14_bb_emlrtDCI            0000000180022018     c14_HardwareDeploymentTest.obj
 0003:00006038       c14_cb_emlrtBCI            0000000180022038     c14_HardwareDeploymentTest.obj
 0003:00006068       c14_cb_emlrtDCI            0000000180022068     c14_HardwareDeploymentTest.obj
 0003:00006088       c14_db_emlrtBCI            0000000180022088     c14_HardwareDeploymentTest.obj
 0003:000060b8       c14_db_emlrtDCI            00000001800220b8     c14_HardwareDeploymentTest.obj
 0003:000060d8       c14_eb_emlrtBCI            00000001800220d8     c14_HardwareDeploymentTest.obj
 0003:00006108       c14_eb_emlrtDCI            0000000180022108     c14_HardwareDeploymentTest.obj
 0003:00006128       $SG26754                   0000000180022128     c14_HardwareDeploymentTest.obj
 0003:00006138       $SG26755                   0000000180022138     c14_HardwareDeploymentTest.obj
 0003:00006160       $SG26778                   0000000180022160     c14_HardwareDeploymentTest.obj
 0003:0000617c       $SG27190                   000000018002217c     c14_HardwareDeploymentTest.obj
 0003:00006180       ?c14_cv4@?1??sf_gateway_c14_HardwareDeploymentTest@@9@9 0000000180022180     c14_HardwareDeploymentTest.obj
 0003:000061b4       $SG27191                   00000001800221b4     c14_HardwareDeploymentTest.obj
 0003:000061b8       ?c14_cv1@?1??sf_gateway_c14_HardwareDeploymentTest@@9@9 00000001800221b8     c14_HardwareDeploymentTest.obj
 0003:000061e8       ?c14_cv3@?1??sf_gateway_c14_HardwareDeploymentTest@@9@9 00000001800221e8     c14_HardwareDeploymentTest.obj
 0003:00006210       ?c14_cv@?1??sf_gateway_c14_HardwareDeploymentTest@@9@9 0000000180022210     c14_HardwareDeploymentTest.obj
 0003:00006230       ?c14_cv2@?1??sf_gateway_c14_HardwareDeploymentTest@@9@9 0000000180022230     c14_HardwareDeploymentTest.obj
 0003:00006238       ?c14_cv5@?1??sf_gateway_c14_HardwareDeploymentTest@@9@9 0000000180022238     c14_HardwareDeploymentTest.obj
 0003:00006240       $SG27192                   0000000180022240     c14_HardwareDeploymentTest.obj
 0003:00006244       $SG27201                   0000000180022244     c14_HardwareDeploymentTest.obj
 0003:00006248       $SG27193                   0000000180022248     c14_HardwareDeploymentTest.obj
 0003:00006250       $SG27194                   0000000180022250     c14_HardwareDeploymentTest.obj
 0003:0000625c       $SG27195                   000000018002225c     c14_HardwareDeploymentTest.obj
 0003:00006264       $SG27202                   0000000180022264     c14_HardwareDeploymentTest.obj
 0003:00006268       $SG27203                   0000000180022268     c14_HardwareDeploymentTest.obj
 0003:0000626c       $SG27266                   000000018002226c     c14_HardwareDeploymentTest.obj
 0003:00006270       $SG27204                   0000000180022270     c14_HardwareDeploymentTest.obj
 0003:00006278       $SG27205                   0000000180022278     c14_HardwareDeploymentTest.obj
 0003:00006284       $SG27206                   0000000180022284     c14_HardwareDeploymentTest.obj
 0003:00006290       $SG27278                   0000000180022290     c14_HardwareDeploymentTest.obj
 0003:00006298       $SG27285                   0000000180022298     c14_HardwareDeploymentTest.obj
 0003:000062a8       $SG27339                   00000001800222a8     c14_HardwareDeploymentTest.obj
 0003:000062e0       $SG27351                   00000001800222e0     c14_HardwareDeploymentTest.obj
 0003:000062f0       $SG27353                   00000001800222f0     c14_HardwareDeploymentTest.obj
 0003:00006300       $SG27355                   0000000180022300     c14_HardwareDeploymentTest.obj
 0003:00006318       $SG27357                   0000000180022318     c14_HardwareDeploymentTest.obj
 0003:00006330       $SG27359                   0000000180022330     c14_HardwareDeploymentTest.obj
 0003:00006344       $SG27360                   0000000180022344     c14_HardwareDeploymentTest.obj
 0003:00006350       $SG27361                   0000000180022350     c14_HardwareDeploymentTest.obj
 0003:00006368       $SG27364                   0000000180022368     c14_HardwareDeploymentTest.obj
 0003:00006378       $SG27377                   0000000180022378     c14_HardwareDeploymentTest.obj
 0003:00006388       $SG27379                   0000000180022388     c14_HardwareDeploymentTest.obj
 0003:00006390       $SG27380                   0000000180022390     c14_HardwareDeploymentTest.obj
 0003:00006428       $SG27502                   0000000180022428     c14_HardwareDeploymentTest.obj
 0003:00006430       $SG27464                   0000000180022430     c14_HardwareDeploymentTest.obj
 0003:00006480       $SG27466                   0000000180022480     c14_HardwareDeploymentTest.obj
 0003:000064d0       $SG27468                   00000001800224d0     c14_HardwareDeploymentTest.obj
 0003:00006520       $SG27470                   0000000180022520     c14_HardwareDeploymentTest.obj
 0003:00006570       $SG27472                   0000000180022570     c14_HardwareDeploymentTest.obj
 0003:000065c0       $SG27474                   00000001800225c0     c14_HardwareDeploymentTest.obj
 0003:00006610       $SG27476                   0000000180022610     c14_HardwareDeploymentTest.obj
 0003:00006660       $SG27478                   0000000180022660     c14_HardwareDeploymentTest.obj
 0003:000066b0       $SG27480                   00000001800226b0     c14_HardwareDeploymentTest.obj
 0003:00006700       $SG27482                   0000000180022700     c14_HardwareDeploymentTest.obj
 0003:00006750       $SG27484                   0000000180022750     c14_HardwareDeploymentTest.obj
 0003:000067a0       $SG27486                   00000001800227a0     c14_HardwareDeploymentTest.obj
 0003:000067f0       $SG27488                   00000001800227f0     c14_HardwareDeploymentTest.obj
 0003:00006840       $SG27490                   0000000180022840     c14_HardwareDeploymentTest.obj
 0003:00006890       $SG27492                   0000000180022890     c14_HardwareDeploymentTest.obj
 0003:000068e0       $SG27494                   00000001800228e0     c14_HardwareDeploymentTest.obj
 0003:00006930       $SG27496                   0000000180022930     c14_HardwareDeploymentTest.obj
 0003:00006980       $SG27498                   0000000180022980     c14_HardwareDeploymentTest.obj
 0003:000069d0       $SG27500                   00000001800229d0     c14_HardwareDeploymentTest.obj
 0003:00006a20       $SG27515                   0000000180022a20     c14_HardwareDeploymentTest.obj
 0003:00006a30       $SG27516                   0000000180022a30     c14_HardwareDeploymentTest.obj
 0003:00006a48       $SG27538                   0000000180022a48     c14_HardwareDeploymentTest.obj
 0003:00006a80       $SG27553                   0000000180022a80     c14_HardwareDeploymentTest.obj
 0003:00006af8       $SG26359                   0000000180022af8     HardwareDeploymentTest_sfun_registry.obj
 0003:00006b18       $SG26361                   0000000180022b18     HardwareDeploymentTest_sfun_registry.obj
 0003:00006b30       $SG26397                   0000000180022b30     HardwareDeploymentTest_sfun_registry.obj
 0003:00006b48       $SG26399                   0000000180022b48     HardwareDeploymentTest_sfun_registry.obj
 0003:00006b60       $SG26435                   0000000180022b60     HardwareDeploymentTest_sfun_registry.obj
 0003:00006b78       $SG26437                   0000000180022b78     HardwareDeploymentTest_sfun_registry.obj
 0003:00006b90       $SG26473                   0000000180022b90     HardwareDeploymentTest_sfun_registry.obj
 0003:00006bb0       $SG26475                   0000000180022bb0     HardwareDeploymentTest_sfun_registry.obj
 0003:00006bc8       $SG26511                   0000000180022bc8     HardwareDeploymentTest_sfun_registry.obj
 0003:00006be8       $SG26513                   0000000180022be8     HardwareDeploymentTest_sfun_registry.obj
 0003:00006c00       $SG26533                   0000000180022c00     HardwareDeploymentTest_sfun_registry.obj
 0003:00006c10       $SG26551                   0000000180022c10     HardwareDeploymentTest_sfun_registry.obj
 0003:00006c28       $SG26582                   0000000180022c28     HardwareDeploymentTest_sfun_registry.obj
 0003:00006c40       $SG26671                   0000000180022c40     HardwareDeploymentTest_sfun_registry.obj
 0003:00006c48       $SG26672                   0000000180022c48     HardwareDeploymentTest_sfun_registry.obj
 0003:00006c5c       $SG26677                   0000000180022c5c     HardwareDeploymentTest_sfun_registry.obj
 0003:00006c64       $SG28535                   0000000180022c64     HardwareDeploymentTest_sfun_registry.obj
 0003:00006c68       $SG26678                   0000000180022c68     HardwareDeploymentTest_sfun_registry.obj
 0003:00006c84       $SG27448                   0000000180022c84     HardwareDeploymentTest_sfun_registry.obj
 0003:00006c8c       $SG28616                   0000000180022c8c     HardwareDeploymentTest_sfun_registry.obj
 0003:00006c90       $SG26820                   0000000180022c90     HardwareDeploymentTest_sfun_registry.obj
 0003:00006cb8       _sfcnName                  0000000180022cb8     HardwareDeploymentTest_sfun_registry.obj
 0003:00006cd8       $SG27241                   0000000180022cd8     HardwareDeploymentTest_sfun_registry.obj
 0003:00006ce0       $SG26837                   0000000180022ce0     HardwareDeploymentTest_sfun_registry.obj
 0003:00006d58       $SG27242                   0000000180022d58     HardwareDeploymentTest_sfun_registry.obj
 0003:00006d60       $SG27256                   0000000180022d60     HardwareDeploymentTest_sfun_registry.obj
 0003:00006d70       $SG27446                   0000000180022d70     HardwareDeploymentTest_sfun_registry.obj
 0003:00006db0       $SG27447                   0000000180022db0     HardwareDeploymentTest_sfun_registry.obj
 0003:00006dc0       $SG27452                   0000000180022dc0     HardwareDeploymentTest_sfun_registry.obj
 0003:00006e08       $SG27453                   0000000180022e08     HardwareDeploymentTest_sfun_registry.obj
 0003:00006e18       $SG27454                   0000000180022e18     HardwareDeploymentTest_sfun_registry.obj
 0003:00006e20       $SG27455                   0000000180022e20     HardwareDeploymentTest_sfun_registry.obj
 0003:00006e78       $SG27456                   0000000180022e78     HardwareDeploymentTest_sfun_registry.obj
 0003:00006e88       $SG27457                   0000000180022e88     HardwareDeploymentTest_sfun_registry.obj
 0003:00006e90       $SG27479                   0000000180022e90     HardwareDeploymentTest_sfun_registry.obj
 0003:00006ed0       $SG27480                   0000000180022ed0     HardwareDeploymentTest_sfun_registry.obj
 0003:00006ee0       $SG27481                   0000000180022ee0     HardwareDeploymentTest_sfun_registry.obj
 0003:00006ee8       $SG27487                   0000000180022ee8     HardwareDeploymentTest_sfun_registry.obj
 0003:00006ef0       $SG27485                   0000000180022ef0     HardwareDeploymentTest_sfun_registry.obj
 0003:00006f38       $SG27486                   0000000180022f38     HardwareDeploymentTest_sfun_registry.obj
 0003:00006f48       $SG27490                   0000000180022f48     HardwareDeploymentTest_sfun_registry.obj
 0003:00006f50       $SG27488                   0000000180022f50     HardwareDeploymentTest_sfun_registry.obj
 0003:00006fa8       $SG27489                   0000000180022fa8     HardwareDeploymentTest_sfun_registry.obj
 0003:00006fb8       $SG27516                   0000000180022fb8     HardwareDeploymentTest_sfun_registry.obj
 0003:00006fc0       $SG27514                   0000000180022fc0     HardwareDeploymentTest_sfun_registry.obj
 0003:00007010       $SG27515                   0000000180023010     HardwareDeploymentTest_sfun_registry.obj
 0003:00007020       $SG27528                   0000000180023020     HardwareDeploymentTest_sfun_registry.obj
 0003:00007080       $SG27529                   0000000180023080     HardwareDeploymentTest_sfun_registry.obj
 0003:00007088       $SG27530                   0000000180023088     HardwareDeploymentTest_sfun_registry.obj
 0003:00007090       $SG27542                   0000000180023090     HardwareDeploymentTest_sfun_registry.obj
 0003:000070f0       $SG27543                   00000001800230f0     HardwareDeploymentTest_sfun_registry.obj
 0003:000070f8       $SG27544                   00000001800230f8     HardwareDeploymentTest_sfun_registry.obj
 0003:00007100       $SG27897                   0000000180023100     HardwareDeploymentTest_sfun_registry.obj
 0003:00007178       $SG28519                   0000000180023178     HardwareDeploymentTest_sfun_registry.obj
 0003:00007190       $SG27900                   0000000180023190     HardwareDeploymentTest_sfun_registry.obj
 0003:00007204       $SG28590                   0000000180023204     HardwareDeploymentTest_sfun_registry.obj
 0003:00007210       $SG27905                   0000000180023210     HardwareDeploymentTest_sfun_registry.obj
 0003:00007288       $SG28591                   0000000180023288     HardwareDeploymentTest_sfun_registry.obj
 0003:00007290       $SG27913                   0000000180023290     HardwareDeploymentTest_sfun_registry.obj
 0003:00007300       $SG28188                   0000000180023300     HardwareDeploymentTest_sfun_registry.obj
 0003:00007378       $SG28592                   0000000180023378     HardwareDeploymentTest_sfun_registry.obj
 0003:00007380       $SG28193                   0000000180023380     HardwareDeploymentTest_sfun_registry.obj
 0003:000073f8       $SG28598                   00000001800233f8     HardwareDeploymentTest_sfun_registry.obj
 0003:00007400       $SG28532                   0000000180023400     HardwareDeploymentTest_sfun_registry.obj
 0003:00007478       $SG28601                   0000000180023478     HardwareDeploymentTest_sfun_registry.obj
 0003:00007480       $SG28593                   0000000180023480     HardwareDeploymentTest_sfun_registry.obj
 0003:000074f8       $SG28604                   00000001800234f8     HardwareDeploymentTest_sfun_registry.obj
 0003:00007500       $SG28595                   0000000180023500     HardwareDeploymentTest_sfun_registry.obj
 0003:00007580       $SG28605                   0000000180023580     HardwareDeploymentTest_sfun_registry.obj
 0003:00007600       $SG28606                   0000000180023600     HardwareDeploymentTest_sfun_registry.obj
 0003:00007610       $SG28608                   0000000180023610     HardwareDeploymentTest_sfun_registry.obj
 0003:0000761c       $SG28610                   000000018002361c     HardwareDeploymentTest_sfun_registry.obj
 0003:00007624       $SG28612                   0000000180023624     HardwareDeploymentTest_sfun_registry.obj
 0003:00007630       $SG28614                   0000000180023630     HardwareDeploymentTest_sfun_registry.obj
 0003:00007640       $SG28619                   0000000180023640     HardwareDeploymentTest_sfun_registry.obj
 0003:00007728       $SG28737                   0000000180023728     HardwareDeploymentTest_sfun_registry.obj
 0003:00007758       $SG28738                   0000000180023758     HardwareDeploymentTest_sfun_registry.obj
 0003:00007768       $SG28739                   0000000180023768     HardwareDeploymentTest_sfun_registry.obj
 0003:00007770       $SG28741                   0000000180023770     HardwareDeploymentTest_sfun_registry.obj
 0003:000077a8       $SG28742                   00000001800237a8     HardwareDeploymentTest_sfun_registry.obj
 0003:000077b8       $SG28743                   00000001800237b8     HardwareDeploymentTest_sfun_registry.obj
 0003:000077c0       $SG28746                   00000001800237c0     HardwareDeploymentTest_sfun_registry.obj
 0003:000077f8       $SG28747                   00000001800237f8     HardwareDeploymentTest_sfun_registry.obj
 0003:00007808       $SG28748                   0000000180023808     HardwareDeploymentTest_sfun_registry.obj
 0003:00007810       $SG28750                   0000000180023810     HardwareDeploymentTest_sfun_registry.obj
 0003:00007848       $SG28751                   0000000180023848     HardwareDeploymentTest_sfun_registry.obj
 0003:00007858       $SG28752                   0000000180023858     HardwareDeploymentTest_sfun_registry.obj
 0003:00007860       $SG28754                   0000000180023860     HardwareDeploymentTest_sfun_registry.obj
 0003:00007898       $SG28755                   0000000180023898     HardwareDeploymentTest_sfun_registry.obj
 0003:000078a8       $SG28756                   00000001800238a8     HardwareDeploymentTest_sfun_registry.obj
 0003:000078b0       $SG28759                   00000001800238b0     HardwareDeploymentTest_sfun_registry.obj
 0003:000078b8       $SG28761                   00000001800238b8     HardwareDeploymentTest_sfun_registry.obj
 0003:000078d0       $SG28762                   00000001800238d0     HardwareDeploymentTest_sfun_registry.obj
 0003:00007908       $SG28763                   0000000180023908     HardwareDeploymentTest_sfun_registry.obj
 0003:00007918       $SG28764                   0000000180023918     HardwareDeploymentTest_sfun_registry.obj
 0003:00007920       $SG28934                   0000000180023920     HardwareDeploymentTest_sfun_registry.obj
 0003:00007940       $SG28935                   0000000180023940     HardwareDeploymentTest_sfun_registry.obj
 0003:000079d0       $SG28941                   00000001800239d0     HardwareDeploymentTest_sfun_registry.obj
 0003:000079e8       $SG28948                   00000001800239e8     HardwareDeploymentTest_sfun_registry.obj
 0003:00007a00       $SG28942                   0000000180023a00     HardwareDeploymentTest_sfun_registry.obj
 0003:00007a90       $SG28949                   0000000180023a90     HardwareDeploymentTest_sfun_registry.obj
 0003:00007b20       $SG28955                   0000000180023b20     HardwareDeploymentTest_sfun_registry.obj
 0003:00007b40       $SG28956                   0000000180023b40     HardwareDeploymentTest_sfun_registry.obj
 0003:00007bd0       $SG28962                   0000000180023bd0     HardwareDeploymentTest_sfun_registry.obj
 0003:00007bf0       $SG28963                   0000000180023bf0     HardwareDeploymentTest_sfun_registry.obj
 0003:00007c80       $SG28967                   0000000180023c80     HardwareDeploymentTest_sfun_registry.obj
 0003:00007ca0       $SG28968                   0000000180023ca0     HardwareDeploymentTest_sfun_registry.obj
 0003:00007d30       $SG28972                   0000000180023d30     HardwareDeploymentTest_sfun_registry.obj
 0003:00007d58       $SG28977                   0000000180023d58     HardwareDeploymentTest_sfun_registry.obj
 0003:00007d80       $SG28973                   0000000180023d80     HardwareDeploymentTest_sfun_registry.obj
 0003:00007e10       $SG28978                   0000000180023e10     HardwareDeploymentTest_sfun_registry.obj
 0003:00007ea0       $SG28982                   0000000180023ea0     HardwareDeploymentTest_sfun_registry.obj
 0003:00007ec0       $SG28983                   0000000180023ec0     HardwareDeploymentTest_sfun_registry.obj
 0003:00007f50       $SG28987                   0000000180023f50     HardwareDeploymentTest_sfun_registry.obj
 0003:00007f70       $SG28988                   0000000180023f70     HardwareDeploymentTest_sfun_registry.obj
 0003:00008000       $SG28992                   0000000180024000     HardwareDeploymentTest_sfun_registry.obj
 0003:00008018       $SG29028                   0000000180024018     HardwareDeploymentTest_sfun_registry.obj
 0003:00008030       $SG28993                   0000000180024030     HardwareDeploymentTest_sfun_registry.obj
 0003:000080c0       $SG28997                   00000001800240c0     HardwareDeploymentTest_sfun_registry.obj
 0003:000080e0       $SG28998                   00000001800240e0     HardwareDeploymentTest_sfun_registry.obj
 0003:00008170       $SG29002                   0000000180024170     HardwareDeploymentTest_sfun_registry.obj
 0003:00008190       $SG29003                   0000000180024190     HardwareDeploymentTest_sfun_registry.obj
 0003:00008220       $SG29007                   0000000180024220     HardwareDeploymentTest_sfun_registry.obj
 0003:00008240       $SG29008                   0000000180024240     HardwareDeploymentTest_sfun_registry.obj
 0003:000082d0       $SG29012                   00000001800242d0     HardwareDeploymentTest_sfun_registry.obj
 0003:000082f0       $SG29013                   00000001800242f0     HardwareDeploymentTest_sfun_registry.obj
 0003:00008380       $SG29017                   0000000180024380     HardwareDeploymentTest_sfun_registry.obj
 0003:000083a0       $SG29018                   00000001800243a0     HardwareDeploymentTest_sfun_registry.obj
 0003:00008430       $SG29022                   0000000180024430     HardwareDeploymentTest_sfun_registry.obj
 0003:00008450       $SG29023                   0000000180024450     HardwareDeploymentTest_sfun_registry.obj
 0003:000084e0       $SG29029                   00000001800244e0     HardwareDeploymentTest_sfun_registry.obj
 0003:00008570       $SG29034                   0000000180024570     HardwareDeploymentTest_sfun_registry.obj
 0003:00008578       $SG29039                   0000000180024578     HardwareDeploymentTest_sfun_registry.obj
 0003:00008590       $SG29035                   0000000180024590     HardwareDeploymentTest_sfun_registry.obj
 0003:00008620       $SG29040                   0000000180024620     HardwareDeploymentTest_sfun_registry.obj
 0003:000086b0       $SG29044                   00000001800246b0     HardwareDeploymentTest_sfun_registry.obj
 0003:000086c0       $SG29045                   00000001800246c0     HardwareDeploymentTest_sfun_registry.obj
 0003:00008750       $SG29049                   0000000180024750     HardwareDeploymentTest_sfun_registry.obj
 0003:00008770       $SG29050                   0000000180024770     HardwareDeploymentTest_sfun_registry.obj
 0003:00008800       $SG29054                   0000000180024800     HardwareDeploymentTest_sfun_registry.obj
 0003:00008820       $SG29055                   0000000180024820     HardwareDeploymentTest_sfun_registry.obj
 0003:000088b0       $SG29059                   00000001800248b0     HardwareDeploymentTest_sfun_registry.obj
 0003:000088c0       $SG29060                   00000001800248c0     HardwareDeploymentTest_sfun_registry.obj
 0003:00008950       $SG29064                   0000000180024950     HardwareDeploymentTest_sfun_registry.obj
 0003:00008960       $SG29065                   0000000180024960     HardwareDeploymentTest_sfun_registry.obj
 0003:000089f0       $SG29069                   00000001800249f0     HardwareDeploymentTest_sfun_registry.obj
 0003:00008a08       $SG29074                   0000000180024a08     HardwareDeploymentTest_sfun_registry.obj
 0003:00008a20       $SG29070                   0000000180024a20     HardwareDeploymentTest_sfun_registry.obj
 0003:00008ab0       $SG29075                   0000000180024ab0     HardwareDeploymentTest_sfun_registry.obj
 0003:00008b40       $SG29079                   0000000180024b40     HardwareDeploymentTest_sfun_registry.obj
 0003:00008b50       $SG29080                   0000000180024b50     HardwareDeploymentTest_sfun_registry.obj
 0003:00008be0       $SG29088                   0000000180024be0     HardwareDeploymentTest_sfun_registry.obj
 0003:00008bf0       $SG29089                   0000000180024bf0     HardwareDeploymentTest_sfun_registry.obj
 0003:00008c80       $SG29095                   0000000180024c80     HardwareDeploymentTest_sfun_registry.obj
 0003:00008c90       $SG29096                   0000000180024c90     HardwareDeploymentTest_sfun_registry.obj
 0003:00008d20       $SG29100                   0000000180024d20     HardwareDeploymentTest_sfun_registry.obj
 0003:00008d30       $SG29101                   0000000180024d30     HardwareDeploymentTest_sfun_registry.obj
 0003:00008dc0       $SG29106                   0000000180024dc0     HardwareDeploymentTest_sfun_registry.obj
 0003:00008dd0       $SG29107                   0000000180024dd0     HardwareDeploymentTest_sfun_registry.obj
 0003:00008e60       $SG29111                   0000000180024e60     HardwareDeploymentTest_sfun_registry.obj
 0003:00008ed8       $SG29154                   0000000180024ed8     HardwareDeploymentTest_sfun_registry.obj
 0003:00008ee8       $SG29235                   0000000180024ee8     HardwareDeploymentTest_sfun_registry.obj
 0003:00008ef0       $SG29141                   0000000180024ef0     HardwareDeploymentTest_sfun_registry.obj
 0003:00009008       $SG29165                   0000000180025008     HardwareDeploymentTest_sfun_registry.obj
 0003:00009018       $SG29178                   0000000180025018     HardwareDeploymentTest_sfun_registry.obj
 0003:00009028       $SG29189                   0000000180025028     HardwareDeploymentTest_sfun_registry.obj
 0003:00009038       $SG29202                   0000000180025038     HardwareDeploymentTest_sfun_registry.obj
 0003:00009048       $SG29213                   0000000180025048     HardwareDeploymentTest_sfun_registry.obj
 0003:00009058       $SG29223                   0000000180025058     HardwareDeploymentTest_sfun_registry.obj
 0003:00009078       $SG29234                   0000000180025078     HardwareDeploymentTest_sfun_registry.obj
 0003:000090a8       $SG29236                   00000001800250a8     HardwareDeploymentTest_sfun_registry.obj
 0003:000090b0       $SG29247                   00000001800250b0     HardwareDeploymentTest_sfun_registry.obj
 0003:000090e8       $SG29248                   00000001800250e8     HardwareDeploymentTest_sfun_registry.obj
 0003:000090f0       $SG29249                   00000001800250f0     HardwareDeploymentTest_sfun_registry.obj
 0003:00009150       sRtwOptimizationInfoStruct 0000000180025150     HardwareDeploymentTest_sfun.obj
 0003:00009158       sOptimizationInfoFlags     0000000180025158     HardwareDeploymentTest_sfun.obj
 0003:00009160       $SG26480                   0000000180025160     c4_HardwareDeploymentTest.obj
 0003:00009161       $SG26487                   0000000180025161     c4_HardwareDeploymentTest.obj
 0003:00009162       $SG26494                   0000000180025162     c4_HardwareDeploymentTest.obj
 0003:00009163       $SG26501                   0000000180025163     c4_HardwareDeploymentTest.obj
 0003:00009164       $SG26508                   0000000180025164     c4_HardwareDeploymentTest.obj
 0003:00009165       $SG26515                   0000000180025165     c4_HardwareDeploymentTest.obj
 0003:00009166       $SG26522                   0000000180025166     c4_HardwareDeploymentTest.obj
 0003:00009167       $SG26529                   0000000180025167     c4_HardwareDeploymentTest.obj
 0003:00009168       $SG26536                   0000000180025168     c4_HardwareDeploymentTest.obj
 0003:00009169       $SG26543                   0000000180025169     c4_HardwareDeploymentTest.obj
 0003:0000916a       $SG26550                   000000018002516a     c4_HardwareDeploymentTest.obj
 0003:0000916b       $SG26557                   000000018002516b     c4_HardwareDeploymentTest.obj
 0003:0000916c       $SG26564                   000000018002516c     c4_HardwareDeploymentTest.obj
 0003:0000916d       $SG26571                   000000018002516d     c4_HardwareDeploymentTest.obj
 0003:0000916e       $SG26578                   000000018002516e     c4_HardwareDeploymentTest.obj
 0003:0000916f       $SG26585                   000000018002516f     c4_HardwareDeploymentTest.obj
 0003:00009170       $SG26592                   0000000180025170     c4_HardwareDeploymentTest.obj
 0003:00009171       $SG26599                   0000000180025171     c4_HardwareDeploymentTest.obj
 0003:00009172       $SG26606                   0000000180025172     c4_HardwareDeploymentTest.obj
 0003:00009173       $SG26613                   0000000180025173     c4_HardwareDeploymentTest.obj
 0003:00009174       $SG26620                   0000000180025174     c4_HardwareDeploymentTest.obj
 0003:00009175       $SG26627                   0000000180025175     c4_HardwareDeploymentTest.obj
 0003:00009176       $SG26634                   0000000180025176     c4_HardwareDeploymentTest.obj
 0003:00009177       $SG26641                   0000000180025177     c4_HardwareDeploymentTest.obj
 0003:00009178       $SG26648                   0000000180025178     c4_HardwareDeploymentTest.obj
 0003:00009179       $SG26655                   0000000180025179     c4_HardwareDeploymentTest.obj
 0003:0000917a       $SG26662                   000000018002517a     c4_HardwareDeploymentTest.obj
 0003:0000917b       $SG26669                   000000018002517b     c4_HardwareDeploymentTest.obj
 0003:0000917c       $SG26676                   000000018002517c     c4_HardwareDeploymentTest.obj
 0003:0000917d       $SG26683                   000000018002517d     c4_HardwareDeploymentTest.obj
 0003:0000917e       $SG26787                   000000018002517e     c4_HardwareDeploymentTest.obj
 0003:0000917f       $SG27367                   000000018002517f     c4_HardwareDeploymentTest.obj
 0003:00009180       _sfTime_                   0000000180025180     c4_HardwareDeploymentTest.obj
 0003:00009188       $SG27368                   0000000180025188     c4_HardwareDeploymentTest.obj
 0003:00009189       $SG27509                   0000000180025189     c4_HardwareDeploymentTest.obj
 0003:00009190       ?newstr@?1??sf_c4_HardwareDeploymentTest_get_post_codegen_info@@9@9 0000000180025190     c4_HardwareDeploymentTest.obj
 0003:00009730       _sfTime_                   0000000180025730     c11_HardwareDeploymentTest.obj
 0003:00009738       $SG26499                   0000000180025738     c11_HardwareDeploymentTest.obj
 0003:00009739       $SG26901                   0000000180025739     c11_HardwareDeploymentTest.obj
 0003:0000973a       $SG26902                   000000018002573a     c11_HardwareDeploymentTest.obj
 0003:0000973b       $SG27045                   000000018002573b     c11_HardwareDeploymentTest.obj
 0003:00009740       ?newstr@?1??sf_c11_HardwareDeploymentTest_get_post_codegen_info@@9@9 0000000180025740     c11_HardwareDeploymentTest.obj
 0003:00009d40       $SG26470                   0000000180025d40     c14_HardwareDeploymentTest.obj
 0003:00009d41       $SG26477                   0000000180025d41     c14_HardwareDeploymentTest.obj
 0003:00009d42       $SG26484                   0000000180025d42     c14_HardwareDeploymentTest.obj
 0003:00009d43       $SG26491                   0000000180025d43     c14_HardwareDeploymentTest.obj
 0003:00009d44       $SG26498                   0000000180025d44     c14_HardwareDeploymentTest.obj
 0003:00009d45       $SG26505                   0000000180025d45     c14_HardwareDeploymentTest.obj
 0003:00009d46       $SG26512                   0000000180025d46     c14_HardwareDeploymentTest.obj
 0003:00009d47       $SG26519                   0000000180025d47     c14_HardwareDeploymentTest.obj
 0003:00009d48       $SG26526                   0000000180025d48     c14_HardwareDeploymentTest.obj
 0003:00009d49       $SG26533                   0000000180025d49     c14_HardwareDeploymentTest.obj
 0003:00009d4a       $SG26540                   0000000180025d4a     c14_HardwareDeploymentTest.obj
 0003:00009d4b       $SG26547                   0000000180025d4b     c14_HardwareDeploymentTest.obj
 0003:00009d4c       $SG26554                   0000000180025d4c     c14_HardwareDeploymentTest.obj
 0003:00009d4d       $SG26561                   0000000180025d4d     c14_HardwareDeploymentTest.obj
 0003:00009d4e       $SG26568                   0000000180025d4e     c14_HardwareDeploymentTest.obj
 0003:00009d4f       $SG26575                   0000000180025d4f     c14_HardwareDeploymentTest.obj
 0003:00009d50       $SG26582                   0000000180025d50     c14_HardwareDeploymentTest.obj
 0003:00009d51       $SG26589                   0000000180025d51     c14_HardwareDeploymentTest.obj
 0003:00009d52       $SG26596                   0000000180025d52     c14_HardwareDeploymentTest.obj
 0003:00009d53       $SG26603                   0000000180025d53     c14_HardwareDeploymentTest.obj
 0003:00009d54       $SG26610                   0000000180025d54     c14_HardwareDeploymentTest.obj
 0003:00009d55       $SG26617                   0000000180025d55     c14_HardwareDeploymentTest.obj
 0003:00009d56       $SG26624                   0000000180025d56     c14_HardwareDeploymentTest.obj
 0003:00009d57       $SG26631                   0000000180025d57     c14_HardwareDeploymentTest.obj
 0003:00009d58       $SG26638                   0000000180025d58     c14_HardwareDeploymentTest.obj
 0003:00009d59       $SG26645                   0000000180025d59     c14_HardwareDeploymentTest.obj
 0003:00009d5a       $SG26652                   0000000180025d5a     c14_HardwareDeploymentTest.obj
 0003:00009d5b       $SG26659                   0000000180025d5b     c14_HardwareDeploymentTest.obj
 0003:00009d5c       $SG26666                   0000000180025d5c     c14_HardwareDeploymentTest.obj
 0003:00009d5d       $SG26673                   0000000180025d5d     c14_HardwareDeploymentTest.obj
 0003:00009d5e       $SG26777                   0000000180025d5e     c14_HardwareDeploymentTest.obj
 0003:00009d5f       $SG27362                   0000000180025d5f     c14_HardwareDeploymentTest.obj
 0003:00009d60       _sfTime_                   0000000180025d60     c14_HardwareDeploymentTest.obj
 0003:00009d68       $SG27363                   0000000180025d68     c14_HardwareDeploymentTest.obj
 0003:00009d69       $SG27504                   0000000180025d69     c14_HardwareDeploymentTest.obj
 0003:00009d70       ?newstr@?1??sf_c14_HardwareDeploymentTest_get_post_codegen_info@@9@9 0000000180025d70     c14_HardwareDeploymentTest.obj
 0003:0000a30c       sfGlobalMdlStartCallCounts 000000018002630c     HardwareDeploymentTest_sfun_registry.obj
 0003:0000a310       $SG28586                   0000000180026310     HardwareDeploymentTest_sfun_registry.obj
 0003:0000a312       ?warningGuard@?1??ssGetRootSS@@9@9 0000000180026312     HardwareDeploymentTest_sfun_registry.obj
 0003:0000a313       ?warningGuard@?1??ssGetParentSS@@9@9 0000000180026313     HardwareDeploymentTest_sfun_registry.obj
 0003:0000a320       GS_ExceptionRecord         0000000180026320     MSVCRT:gs_report.obj
 0003:0000a3c0       GS_ContextRecord           00000001800263c0     MSVCRT:gs_report.obj
 0003:0000a890       ?__proc_attached@@3HA      0000000180026890     MSVCRT:dll_dllmain.obj
 0003:0000a8d0       ?is_initialized_as_dll@@3_NA 00000001800268d0     MSVCRT:utility.obj
 0003:0000a8d1       ?module_local_atexit_table_initialized@@3_NA 00000001800268d1     MSVCRT:utility.obj
 0003:0000a8d8       ?module_local_atexit_table@@3U_onexit_table_t@@A 00000001800268d8     MSVCRT:utility.obj
 0003:0000a8f0       ?module_local_at_quick_exit_table@@3U_onexit_table_t@@A 00000001800268f0     MSVCRT:utility.obj
